(dp1
I0
S'actioncliptrain00001.txt'
p2
sI1
S'actioncliptrain00139.txt'
p3
sI2
S'actioncliptrain00276.txt'
p4
sI3
S'actioncliptrain00413.txt'
p5
sI4
S'actioncliptrain00550.txt'
p6
sI5
S'actioncliptrain00687.txt'
p7
sI6
S'actioncliptrain00002.txt'
p8
sI7
S'actioncliptrain00140.txt'
p9
sI8
S'actioncliptrain00551.txt'
p10
sI9
S'actioncliptrain00414.txt'
p11
sI10
S'actioncliptrain00688.txt'
p12
sI11
S'actioncliptrain00277.txt'
p13
sI12
S'actioncliptrain00003.txt'
p14
sI13
S'actioncliptrain00552.txt'
p15
sI14
S'actioncliptrain00689.txt'
p16
sI15
S'actioncliptrain00141.txt'
p17
sI16
S'actioncliptrain00004.txt'
p18
sI17
S'actioncliptrain00690.txt'
p19
sI18
S'actioncliptrain00142.txt'
p20
sI19
S'actioncliptrain00278.txt'
p21
sI20
S'actioncliptrain00143.txt'
p22
sI21
S'actioncliptrain00279.txt'
p23
sI22
S'actioncliptrain00415.txt'
p24
sI23
S'actioncliptrain00144.txt'
p25
sI24
S'actioncliptrain00691.txt'
p26
sI25
S'actioncliptrain00005.txt'
p27
sI26
S'actioncliptrain00006.txt'
p28
sI27
S'actioncliptrain00280.txt'
p29
sI28
S'actioncliptrain00145.txt'
p30
sI29
S'actioncliptrain00281.txt'
p31
sI30
S'actioncliptrain00007.txt'
p32
sI31
S'actioncliptrain00692.txt'
p33
sI32
S'actioncliptrain00282.txt'
p34
sI33
S'actioncliptrain00146.txt'
p35
sI34
S'actioncliptrain00147.txt'
p36
sI35
S'actioncliptrain00283.txt'
p37
sI36
S'actioncliptrain00693.txt'
p38
sI37
S'actioncliptrain00008.txt'
p39
sI38
S'actioncliptrain00284.txt'
p40
sI39
S'actioncliptrain00148.txt'
p41
sI40
S'actioncliptrain00553.txt'
p42
sI41
S'actioncliptrain00694.txt'
p43
sI42
S'actioncliptrain00149.txt'
p44
sI43
S'actioncliptrain00009.txt'
p45
sI44
S'actioncliptrain00416.txt'
p46
sI45
S'actioncliptrain00554.txt'
p47
sI46
S'actioncliptrain00285.txt'
p48
sI47
S'actioncliptrain00010.txt'
p49
sI48
S'actioncliptrain00695.txt'
p50
sI49
S'actioncliptrain00150.txt'
p51
sI50
S'actioncliptrain00286.txt'
p52
sI51
S'actioncliptrain00417.txt'
p53
sI52
S'actioncliptrain00555.txt'
p54
sI53
S'actioncliptrain00696.txt'
p55
sI54
S'actioncliptrain00287.txt'
p56
sI55
S'actioncliptrain00697.txt'
p57
sI56
S'actioncliptrain00556.txt'
p58
sI57
S'actioncliptrain00151.txt'
p59
sI58
S'actioncliptrain00288.txt'
p60
sI59
S'actioncliptrain00152.txt'
p61
sI60
S'actioncliptrain00557.txt'
p62
sI61
S'actioncliptrain00418.txt'
p63
sI62
S'actioncliptrain00698.txt'
p64
sI63
S'actioncliptrain00153.txt'
p65
sI64
S'actioncliptrain00011.txt'
p66
sI65
S'actioncliptrain00558.txt'
p67
sI66
S'actioncliptrain00289.txt'
p68
sI67
S'actioncliptrain00699.txt'
p69
sI68
S'actioncliptrain00154.txt'
p70
sI69
S'actioncliptrain00419.txt'
p71
sI70
S'actioncliptrain00559.txt'
p72
sI71
S'actioncliptrain00012.txt'
p73
sI72
S'actioncliptrain00290.txt'
p74
sI73
S'actioncliptrain00155.txt'
p75
sI74
S'actioncliptrain00560.txt'
p76
sI75
S'actioncliptrain00700.txt'
p77
sI76
S'actioncliptrain00420.txt'
p78
sI77
S'actioncliptrain00291.txt'
p79
sI78
S'actioncliptrain00156.txt'
p80
sI79
S'actioncliptrain00013.txt'
p81
sI80
S'actioncliptrain00701.txt'
p82
sI81
S'actioncliptrain00561.txt'
p83
sI82
S'actioncliptrain00157.txt'
p84
sI83
S'actioncliptrain00014.txt'
p85
sI84
S'actioncliptrain00702.txt'
p86
sI85
S'actioncliptrain00158.txt'
p87
sI86
S'actioncliptrain00159.txt'
p88
sI87
S'actioncliptrain00562.txt'
p89
sI88
S'actioncliptrain00703.txt'
p90
sI89
S'actioncliptrain00421.txt'
p91
sI90
S'actioncliptrain00160.txt'
p92
sI91
S'actioncliptrain00704.txt'
p93
sI92
S'actioncliptrain00161.txt'
p94
sI93
S'actioncliptrain00015.txt'
p95
sI94
S'actioncliptrain00563.txt'
p96
sI95
S'actioncliptrain00422.txt'
p97
sI96
S'actioncliptrain00705.txt'
p98
sI97
S'actioncliptrain00016.txt'
p99
sI98
S'actioncliptrain00162.txt'
p100
sI99
S'actioncliptrain00564.txt'
p101
sI100
S'actioncliptrain00706.txt'
p102
sI101
S'actioncliptrain00017.txt'
p103
sI102
S'actioncliptrain00423.txt'
p104
sI103
S'actioncliptrain00018.txt'
p105
sI104
S'actioncliptrain00565.txt'
p106
sI105
S'actioncliptrain00707.txt'
p107
sI106
S'actioncliptrain00019.txt'
p108
sI107
S'actioncliptrain00708.txt'
p109
sI108
S'actioncliptrain00020.txt'
p110
sI109
S'actioncliptrain00709.txt'
p111
sI110
S'actioncliptrain00021.txt'
p112
sI111
S'actioncliptrain00566.txt'
p113
sI112
S'actioncliptrain00022.txt'
p114
sI113
S'actioncliptrain00023.txt'
p115
sI114
S'actioncliptrain00567.txt'
p116
sI115
S'actioncliptrain00024.txt'
p117
sI116
S'actioncliptrain00710.txt'
p118
sI117
S'actioncliptrain00025.txt'
p119
sI118
S'actioncliptrain00163.txt'
p120
sI119
S'actioncliptrain00568.txt'
p121
sI120
S'actioncliptrain00424.txt'
p122
sI121
S'actioncliptrain00164.txt'
p123
sI122
S'actioncliptrain00711.txt'
p124
sI123
S'actioncliptrain00569.txt'
p125
sI124
S'actioncliptrain00026.txt'
p126
sI125
S'actioncliptrain00712.txt'
p127
sI126
S'actioncliptrain00165.txt'
p128
sI127
S'actioncliptrain00425.txt'
p129
sI128
S'actioncliptrain00713.txt'
p130
sI129
S'actioncliptrain00570.txt'
p131
sI130
S'actioncliptrain00292.txt'
p132
sI131
S'actioncliptrain00166.txt'
p133
sI132
S'actioncliptrain00571.txt'
p134
sI133
S'actioncliptrain00426.txt'
p135
sI134
S'actioncliptrain00714.txt'
p136
sI135
S'actioncliptrain00167.txt'
p137
sI136
S'actioncliptrain00027.txt'
p138
sI137
S'actioncliptrain00293.txt'
p139
sI138
S'actioncliptrain00168.txt'
p140
sI139
S'actioncliptrain00572.txt'
p141
sI140
S'actioncliptrain00715.txt'
p142
sI141
S'actioncliptrain00294.txt'
p143
sI142
S'actioncliptrain00169.txt'
p144
sI143
S'actioncliptrain00573.txt'
p145
sI144
S'actioncliptrain00574.txt'
p146
sI145
S'actioncliptrain00170.txt'
p147
sI146
S'actioncliptrain00716.txt'
p148
sI147
S'actioncliptrain00575.txt'
p149
sI148
S'actioncliptrain00028.txt'
p150
sI149
S'actioncliptrain00171.txt'
p151
sI150
S'actioncliptrain00576.txt'
p152
sI151
S'actioncliptrain00172.txt'
p153
sI152
S'actioncliptrain00029.txt'
p154
sI153
S'actioncliptrain00577.txt'
p155
sI154
S'actioncliptrain00717.txt'
p156
sI155
S'actioncliptrain00173.txt'
p157
sI156
S'actioncliptrain00578.txt'
p158
sI157
S'actioncliptrain00427.txt'
p159
sI158
S'actioncliptrain00718.txt'
p160
sI159
S'actioncliptrain00174.txt'
p161
sI160
S'actioncliptrain00579.txt'
p162
sI161
S'actioncliptrain00719.txt'
p163
sI162
S'actioncliptrain00295.txt'
p164
sI163
S'actioncliptrain00720.txt'
p165
sI164
S'actioncliptrain00030.txt'
p166
sI165
S'actioncliptrain00296.txt'
p167
sI166
S'actioncliptrain00175.txt'
p168
sI167
S'actioncliptrain00428.txt'
p169
sI168
S'actioncliptrain00031.txt'
p170
sI169
S'actioncliptrain00297.txt'
p171
sI170
S'actioncliptrain00721.txt'
p172
sI171
S'actioncliptrain00580.txt'
p173
sI172
S'actioncliptrain00176.txt'
p174
sI173
S'actioncliptrain00032.txt'
p175
sI174
S'actioncliptrain00033.txt'
p176
sI175
S'actioncliptrain00581.txt'
p177
sI176
S'actioncliptrain00177.txt'
p178
sI177
S'actioncliptrain00582.txt'
p179
sI178
S'actioncliptrain00583.txt'
p180
sI179
S'actioncliptrain00298.txt'
p181
sI180
S'actioncliptrain00178.txt'
p182
sI181
S'actioncliptrain00429.txt'
p183
sI182
S'actioncliptrain00179.txt'
p184
sI183
S'actioncliptrain00722.txt'
p185
sI184
S'actioncliptrain00584.txt'
p186
sI185
S'actioncliptrain00180.txt'
p187
sI186
S'actioncliptrain00034.txt'
p188
sI187
S'actioncliptrain00585.txt'
p189
sI188
S'actioncliptrain00181.txt'
p190
sI189
S'actioncliptrain00035.txt'
p191
sI190
S'actioncliptrain00430.txt'
p192
sI191
S'actioncliptrain00299.txt'
p193
sI192
S'actioncliptrain00036.txt'
p194
sI193
S'actioncliptrain00182.txt'
p195
sI194
S'actioncliptrain00586.txt'
p196
sI195
S'actioncliptrain00037.txt'
p197
sI196
S'actioncliptrain00723.txt'
p198
sI197
S'actioncliptrain00183.txt'
p199
sI198
S'actioncliptrain00038.txt'
p200
sI199
S'actioncliptrain00587.txt'
p201
sI200
S'actioncliptrain00039.txt'
p202
sI201
S'actioncliptrain00300.txt'
p203
sI202
S'actioncliptrain00588.txt'
p204
sI203
S'actioncliptrain00431.txt'
p205
sI204
S'actioncliptrain00040.txt'
p206
sI205
S'actioncliptrain00184.txt'
p207
sI206
S'actioncliptrain00432.txt'
p208
sI207
S'actioncliptrain00041.txt'
p209
sI208
S'actioncliptrain00589.txt'
p210
sI209
S'actioncliptrain00185.txt'
p211
sI210
S'actioncliptrain00186.txt'
p212
sI211
S'actioncliptrain00590.txt'
p213
sI212
S'actioncliptrain00187.txt'
p214
sI213
S'actioncliptrain00433.txt'
p215
sI214
S'actioncliptrain00724.txt'
p216
sI215
S'actioncliptrain00301.txt'
p217
sI216
S'actioncliptrain00188.txt'
p218
sI217
S'actioncliptrain00434.txt'
p219
sI218
S'actioncliptrain00042.txt'
p220
sI219
S'actioncliptrain00302.txt'
p221
sI220
S'actioncliptrain00189.txt'
p222
sI221
S'actioncliptrain00591.txt'
p223
sI222
S'actioncliptrain00435.txt'
p224
sI223
S'actioncliptrain00303.txt'
p225
sI224
S'actioncliptrain00043.txt'
p226
sI225
S'actioncliptrain00436.txt'
p227
sI226
S'actioncliptrain00190.txt'
p228
sI227
S'actioncliptrain00191.txt'
p229
sI228
S'actioncliptrain00437.txt'
p230
sI229
S'actioncliptrain00044.txt'
p231
sI230
S'actioncliptrain00192.txt'
p232
sI231
S'actioncliptrain00304.txt'
p233
sI232
S'actioncliptrain00592.txt'
p234
sI233
S'actioncliptrain00593.txt'
p235
sI234
S'actioncliptrain00045.txt'
p236
sI235
S'actioncliptrain00305.txt'
p237
sI236
S'actioncliptrain00438.txt'
p238
sI237
S'actioncliptrain00594.txt'
p239
sI238
S'actioncliptrain00439.txt'
p240
sI239
S'actioncliptrain00046.txt'
p241
sI240
S'actioncliptrain00595.txt'
p242
sI241
S'actioncliptrain00193.txt'
p243
sI242
S'actioncliptrain00440.txt'
p244
sI243
S'actioncliptrain00596.txt'
p245
sI244
S'actioncliptrain00597.txt'
p246
sI245
S'actioncliptrain00441.txt'
p247
sI246
S'actioncliptrain00598.txt'
p248
sI247
S'actioncliptrain00194.txt'
p249
sI248
S'actioncliptrain00442.txt'
p250
sI249
S'actioncliptrain00047.txt'
p251
sI250
S'actioncliptrain00443.txt'
p252
sI251
S'actioncliptrain00599.txt'
p253
sI252
S'actioncliptrain00600.txt'
p254
sI253
S'actioncliptrain00048.txt'
p255
sI254
S'actioncliptrain00444.txt'
p256
sI255
S'actioncliptrain00601.txt'
p257
sI256
S'actioncliptrain00049.txt'
p258
sI257
S'actioncliptrain00602.txt'
p259
sI258
S'actioncliptrain00050.txt'
p260
sI259
S'actioncliptrain00445.txt'
p261
sI260
S'actioncliptrain00306.txt'
p262
sI261
S'actioncliptrain00603.txt'
p263
sI262
S'actioncliptrain00051.txt'
p264
sI263
S'actioncliptrain00604.txt'
p265
sI264
S'actioncliptrain00195.txt'
p266
sI265
S'actioncliptrain00446.txt'
p267
sI266
S'actioncliptrain00605.txt'
p268
sI267
S'actioncliptrain00052.txt'
p269
sI268
S'actioncliptrain00606.txt'
p270
sI269
S'actioncliptrain00725.txt'
p271
sI270
S'actioncliptrain00607.txt'
p272
sI271
S'actioncliptrain00053.txt'
p273
sI272
S'actioncliptrain00447.txt'
p274
sI273
S'actioncliptrain00448.txt'
p275
sI274
S'actioncliptrain00608.txt'
p276
sI275
S'actioncliptrain00307.txt'
p277
sI276
S'actioncliptrain00449.txt'
p278
sI277
S'actioncliptrain00609.txt'
p279
sI278
S'actioncliptrain00196.txt'
p280
sI279
S'actioncliptrain00450.txt'
p281
sI280
S'actioncliptrain00308.txt'
p282
sI281
S'actioncliptrain00610.txt'
p283
sI282
S'actioncliptrain00054.txt'
p284
sI283
S'actioncliptrain00451.txt'
p285
sI284
S'actioncliptrain00309.txt'
p286
sI285
S'actioncliptrain00197.txt'
p287
sI286
S'actioncliptrain00452.txt'
p288
sI287
S'actioncliptrain00611.txt'
p289
sI288
S'actioncliptrain00453.txt'
p290
sI289
S'actioncliptrain00310.txt'
p291
sI290
S'actioncliptrain00055.txt'
p292
sI291
S'actioncliptrain00198.txt'
p293
sI292
S'actioncliptrain00311.txt'
p294
sI293
S'actioncliptrain00454.txt'
p295
sI294
S'actioncliptrain00312.txt'
p296
sI295
S'actioncliptrain00199.txt'
p297
sI296
S'actioncliptrain00612.txt'
p298
sI297
S'actioncliptrain00313.txt'
p299
sI298
S'actioncliptrain00455.txt'
p300
sI299
S'actioncliptrain00726.txt'
p301
sI300
S'actioncliptrain00613.txt'
p302
sI301
S'actioncliptrain00200.txt'
p303
sI302
S'actioncliptrain00314.txt'
p304
sI303
S'actioncliptrain00056.txt'
p305
sI304
S'actioncliptrain00727.txt'
p306
sI305
S'actioncliptrain00057.txt'
p307
sI306
S'actioncliptrain00201.txt'
p308
sI307
S'actioncliptrain00614.txt'
p309
sI308
S'actioncliptrain00456.txt'
p310
sI309
S'actioncliptrain00615.txt'
p311
sI310
S'actioncliptrain00058.txt'
p312
sI311
S'actioncliptrain00728.txt'
p313
sI312
S'actioncliptrain00616.txt'
p314
sI313
S'actioncliptrain00617.txt'
p315
sI314
S'actioncliptrain00315.txt'
p316
sI315
S'actioncliptrain00729.txt'
p317
sI316
S'actioncliptrain00457.txt'
p318
sI317
S'actioncliptrain00059.txt'
p319
sI318
S'actioncliptrain00730.txt'
p320
sI319
S'actioncliptrain00458.txt'
p321
sI320
S'actioncliptrain00060.txt'
p322
sI321
S'actioncliptrain00731.txt'
p323
sI322
S'actioncliptrain00459.txt'
p324
sI323
S'actioncliptrain00732.txt'
p325
sI324
S'actioncliptrain00316.txt'
p326
sI325
S'actioncliptrain00618.txt'
p327
sI326
S'actioncliptrain00202.txt'
p328
sI327
S'actioncliptrain00460.txt'
p329
sI328
S'actioncliptrain00461.txt'
p330
sI329
S'actioncliptrain00619.txt'
p331
sI330
S'actioncliptrain00317.txt'
p332
sI331
S'actioncliptrain00462.txt'
p333
sI332
S'actioncliptrain00620.txt'
p334
sI333
S'actioncliptrain00061.txt'
p335
sI334
S'actioncliptrain00203.txt'
p336
sI335
S'actioncliptrain00463.txt'
p337
sI336
S'actioncliptrain00062.txt'
p338
sI337
S'actioncliptrain00318.txt'
p339
sI338
S'actioncliptrain00464.txt'
p340
sI339
S'actioncliptrain00621.txt'
p341
sI340
S'actioncliptrain00622.txt'
p342
sI341
S'actioncliptrain00319.txt'
p343
sI342
S'actioncliptrain00204.txt'
p344
sI343
S'actioncliptrain00465.txt'
p345
sI344
S'actioncliptrain00733.txt'
p346
sI345
S'actioncliptrain00320.txt'
p347
sI346
S'actioncliptrain00623.txt'
p348
sI347
S'actioncliptrain00063.txt'
p349
sI348
S'actioncliptrain00624.txt'
p350
sI349
S'actioncliptrain00625.txt'
p351
sI350
S'actioncliptrain00466.txt'
p352
sI351
S'actioncliptrain00626.txt'
p353
sI352
S'actioncliptrain00205.txt'
p354
sI353
S'actioncliptrain00467.txt'
p355
sI354
S'actioncliptrain00064.txt'
p356
sI355
S'actioncliptrain00627.txt'
p357
sI356
S'actioncliptrain00628.txt'
p358
sI357
S'actioncliptrain00065.txt'
p359
sI358
S'actioncliptrain00629.txt'
p360
sI359
S'actioncliptrain00066.txt'
p361
sI360
S'actioncliptrain00321.txt'
p362
sI361
S'actioncliptrain00067.txt'
p363
sI362
S'actioncliptrain00206.txt'
p364
sI363
S'actioncliptrain00068.txt'
p365
sI364
S'actioncliptrain00207.txt'
p366
sI365
S'actioncliptrain00322.txt'
p367
sI366
S'actioncliptrain00069.txt'
p368
sI367
S'actioncliptrain00323.txt'
p369
sI368
S'actioncliptrain00208.txt'
p370
sI369
S'actioncliptrain00734.txt'
p371
sI370
S'actioncliptrain00468.txt'
p372
sI371
S'actioncliptrain00070.txt'
p373
sI372
S'actioncliptrain00630.txt'
p374
sI373
S'actioncliptrain00071.txt'
p375
sI374
S'actioncliptrain00735.txt'
p376
sI375
S'actioncliptrain00209.txt'
p377
sI376
S'actioncliptrain00469.txt'
p378
sI377
S'actioncliptrain00072.txt'
p379
sI378
S'actioncliptrain00324.txt'
p380
sI379
S'actioncliptrain00470.txt'
p381
sI380
S'actioncliptrain00210.txt'
p382
sI381
S'actioncliptrain00471.txt'
p383
sI382
S'actioncliptrain00073.txt'
p384
sI383
S'actioncliptrain00325.txt'
p385
sI384
S'actioncliptrain00631.txt'
p386
sI385
S'actioncliptrain00472.txt'
p387
sI386
S'actioncliptrain00326.txt'
p388
sI387
S'actioncliptrain00074.txt'
p389
sI388
S'actioncliptrain00473.txt'
p390
sI389
S'actioncliptrain00327.txt'
p391
sI390
S'actioncliptrain00211.txt'
p392
sI391
S'actioncliptrain00075.txt'
p393
sI392
S'actioncliptrain00736.txt'
p394
sI393
S'actioncliptrain00632.txt'
p395
sI394
S'actioncliptrain00474.txt'
p396
sI395
S'actioncliptrain00633.txt'
p397
sI396
S'actioncliptrain00328.txt'
p398
sI397
S'actioncliptrain00475.txt'
p399
sI398
S'actioncliptrain00329.txt'
p400
sI399
S'actioncliptrain00212.txt'
p401
sI400
S'actioncliptrain00076.txt'
p402
sI401
S'actioncliptrain00330.txt'
p403
sI402
S'actioncliptrain00634.txt'
p404
sI403
S'actioncliptrain00476.txt'
p405
sI404
S'actioncliptrain00635.txt'
p406
sI405
S'actioncliptrain00077.txt'
p407
sI406
S'actioncliptrain00331.txt'
p408
sI407
S'actioncliptrain00477.txt'
p409
sI408
S'actioncliptrain00332.txt'
p410
sI409
S'actioncliptrain00078.txt'
p411
sI410
S'actioncliptrain00636.txt'
p412
sI411
S'actioncliptrain00637.txt'
p413
sI412
S'actioncliptrain00333.txt'
p414
sI413
S'actioncliptrain00213.txt'
p415
sI414
S'actioncliptrain00334.txt'
p416
sI415
S'actioncliptrain00478.txt'
p417
sI416
S'actioncliptrain00479.txt'
p418
sI417
S'actioncliptrain00737.txt'
p419
sI418
S'actioncliptrain00638.txt'
p420
sI419
S'actioncliptrain00738.txt'
p421
sI420
S'actioncliptrain00480.txt'
p422
sI421
S'actioncliptrain00639.txt'
p423
sI422
S'actioncliptrain00481.txt'
p424
sI423
S'actioncliptrain00640.txt'
p425
sI424
S'actioncliptrain00482.txt'
p426
sI425
S'actioncliptrain00079.txt'
p427
sI426
S'actioncliptrain00641.txt'
p428
sI427
S'actioncliptrain00642.txt'
p429
sI428
S'actioncliptrain00483.txt'
p430
sI429
S'actioncliptrain00335.txt'
p431
sI430
S'actioncliptrain00643.txt'
p432
sI431
S'actioncliptrain00484.txt'
p433
sI432
S'actioncliptrain00644.txt'
p434
sI433
S'actioncliptrain00645.txt'
p435
sI434
S'actioncliptrain00336.txt'
p436
sI435
S'actioncliptrain00214.txt'
p437
sI436
S'actioncliptrain00485.txt'
p438
sI437
S'actioncliptrain00646.txt'
p439
sI438
S'actioncliptrain00739.txt'
p440
sI439
S'actioncliptrain00647.txt'
p441
sI440
S'actioncliptrain00486.txt'
p442
sI441
S'actioncliptrain00337.txt'
p443
sI442
S'actioncliptrain00648.txt'
p444
sI443
S'actioncliptrain00740.txt'
p445
sI444
S'actioncliptrain00338.txt'
p446
sI445
S'actioncliptrain00487.txt'
p447
sI446
S'actioncliptrain00488.txt'
p448
sI447
S'actioncliptrain00741.txt'
p449
sI448
S'actioncliptrain00742.txt'
p450
sI449
S'actioncliptrain00339.txt'
p451
sI450
S'actioncliptrain00489.txt'
p452
sI451
S'actioncliptrain00340.txt'
p453
sI452
S'actioncliptrain00215.txt'
p454
sI453
S'actioncliptrain00649.txt'
p455
sI454
S'actioncliptrain00341.txt'
p456
sI455
S'actioncliptrain00650.txt'
p457
sI456
S'actioncliptrain00080.txt'
p458
sI457
S'actioncliptrain00081.txt'
p459
sI458
S'actioncliptrain00342.txt'
p460
sI459
S'actioncliptrain00651.txt'
p461
sI460
S'actioncliptrain00343.txt'
p462
sI461
S'actioncliptrain00216.txt'
p463
sI462
S'actioncliptrain00652.txt'
p464
sI463
S'actioncliptrain00490.txt'
p465
sI464
S'actioncliptrain00743.txt'
p466
sI465
S'actioncliptrain00344.txt'
p467
sI466
S'actioncliptrain00082.txt'
p468
sI467
S'actioncliptrain00653.txt'
p469
sI468
S'actioncliptrain00744.txt'
p470
sI469
S'actioncliptrain00745.txt'
p471
sI470
S'actioncliptrain00491.txt'
p472
sI471
S'actioncliptrain00654.txt'
p473
sI472
S'actioncliptrain00345.txt'
p474
sI473
S'actioncliptrain00217.txt'
p475
sI474
S'actioncliptrain00346.txt'
p476
sI475
S'actioncliptrain00655.txt'
p477
sI476
S'actioncliptrain00083.txt'
p478
sI477
S'actioncliptrain00656.txt'
p479
sI478
S'actioncliptrain00218.txt'
p480
sI479
S'actioncliptrain00347.txt'
p481
sI480
S'actioncliptrain00657.txt'
p482
sI481
S'actioncliptrain00492.txt'
p483
sI482
S'actioncliptrain00084.txt'
p484
sI483
S'actioncliptrain00658.txt'
p485
sI484
S'actioncliptrain00085.txt'
p486
sI485
S'actioncliptrain00493.txt'
p487
sI486
S'actioncliptrain00659.txt'
p488
sI487
S'actioncliptrain00219.txt'
p489
sI488
S'actioncliptrain00494.txt'
p490
sI489
S'actioncliptrain00348.txt'
p491
sI490
S'actioncliptrain00660.txt'
p492
sI491
S'actioncliptrain00349.txt'
p493
sI492
S'actioncliptrain00746.txt'
p494
sI493
S'actioncliptrain00495.txt'
p495
sI494
S'actioncliptrain00086.txt'
p496
sI495
S'actioncliptrain00747.txt'
p497
sI496
S'actioncliptrain00220.txt'
p498
sI497
S'actioncliptrain00748.txt'
p499
sI498
S'actioncliptrain00350.txt'
p500
sI499
S'actioncliptrain00087.txt'
p501
sI500
S'actioncliptrain00749.txt'
p502
sI501
S'actioncliptrain00661.txt'
p503
sI502
S'actioncliptrain00351.txt'
p504
sI503
S'actioncliptrain00496.txt'
p505
sI504
S'actioncliptrain00088.txt'
p506
sI505
S'actioncliptrain00497.txt'
p507
sI506
S'actioncliptrain00662.txt'
p508
sI507
S'actioncliptrain00089.txt'
p509
sI508
S'actioncliptrain00663.txt'
p510
sI509
S'actioncliptrain00352.txt'
p511
sI510
S'actioncliptrain00090.txt'
p512
sI511
S'actioncliptrain00750.txt'
p513
sI512
S'actioncliptrain00664.txt'
p514
sI513
S'actioncliptrain00221.txt'
p515
sI514
S'actioncliptrain00353.txt'
p516
sI515
S'actioncliptrain00091.txt'
p517
sI516
S'actioncliptrain00665.txt'
p518
sI517
S'actioncliptrain00498.txt'
p519
sI518
S'actioncliptrain00354.txt'
p520
sI519
S'actioncliptrain00092.txt'
p521
sI520
S'actioncliptrain00499.txt'
p522
sI521
S'actioncliptrain00355.txt'
p523
sI522
S'actioncliptrain00666.txt'
p524
sI523
S'actioncliptrain00500.txt'
p525
sI524
S'actioncliptrain00667.txt'
p526
sI525
S'actioncliptrain00751.txt'
p527
sI526
S'actioncliptrain00668.txt'
p528
sI527
S'actioncliptrain00356.txt'
p529
sI528
S'actioncliptrain00357.txt'
p530
sI529
S'actioncliptrain00501.txt'
p531
sI530
S'actioncliptrain00093.txt'
p532
sI531
S'actioncliptrain00358.txt'
p533
sI532
S'actioncliptrain00752.txt'
p534
sI533
S'actioncliptrain00359.txt'
p535
sI534
S'actioncliptrain00753.txt'
p536
sI535
S'actioncliptrain00094.txt'
p537
sI536
S'actioncliptrain00502.txt'
p538
sI537
S'actioncliptrain00669.txt'
p539
sI538
S'actioncliptrain00670.txt'
p540
sI539
S'actioncliptrain00095.txt'
p541
sI540
S'actioncliptrain00222.txt'
p542
sI541
S'actioncliptrain00360.txt'
p543
sI542
S'actioncliptrain00754.txt'
p544
sI543
S'actioncliptrain00503.txt'
p545
sI544
S'actioncliptrain00671.txt'
p546
sI545
S'actioncliptrain00755.txt'
p547
sI546
S'actioncliptrain00223.txt'
p548
sI547
S'actioncliptrain00096.txt'
p549
sI548
S'actioncliptrain00224.txt'
p550
sI549
S'actioncliptrain00361.txt'
p551
sI550
S'actioncliptrain00504.txt'
p552
sI551
S'actioncliptrain00672.txt'
p553
sI552
S'actioncliptrain00225.txt'
p554
sI553
S'actioncliptrain00097.txt'
p555
sI554
S'actioncliptrain00756.txt'
p556
sI555
S'actioncliptrain00226.txt'
p557
sI556
S'actioncliptrain00757.txt'
p558
sI557
S'actioncliptrain00098.txt'
p559
sI558
S'actioncliptrain00227.txt'
p560
sI559
S'actioncliptrain00758.txt'
p561
sI560
S'actioncliptrain00505.txt'
p562
sI561
S'actioncliptrain00099.txt'
p563
sI562
S'actioncliptrain00673.txt'
p564
sI563
S'actioncliptrain00228.txt'
p565
sI564
S'actioncliptrain00506.txt'
p566
sI565
S'actioncliptrain00674.txt'
p567
sI566
S'actioncliptrain00100.txt'
p568
sI567
S'actioncliptrain00759.txt'
p569
sI568
S'actioncliptrain00229.txt'
p570
sI569
S'actioncliptrain00760.txt'
p571
sI570
S'actioncliptrain00101.txt'
p572
sI571
S'actioncliptrain00230.txt'
p573
sI572
S'actioncliptrain00507.txt'
p574
sI573
S'actioncliptrain00761.txt'
p575
sI574
S'actioncliptrain00508.txt'
p576
sI575
S'actioncliptrain00102.txt'
p577
sI576
S'actioncliptrain00103.txt'
p578
sI577
S'actioncliptrain00762.txt'
p579
sI578
S'actioncliptrain00509.txt'
p580
sI579
S'actioncliptrain00231.txt'
p581
sI580
S'actioncliptrain00104.txt'
p582
sI581
S'actioncliptrain00105.txt'
p583
sI582
S'actioncliptrain00232.txt'
p584
sI583
S'actioncliptrain00763.txt'
p585
sI584
S'actioncliptrain00233.txt'
p586
sI585
S'actioncliptrain00675.txt'
p587
sI586
S'actioncliptrain00510.txt'
p588
sI587
S'actioncliptrain00234.txt'
p589
sI588
S'actioncliptrain00106.txt'
p590
sI589
S'actioncliptrain00235.txt'
p591
sI590
S'actioncliptrain00236.txt'
p592
sI591
S'actioncliptrain00107.txt'
p593
sI592
S'actioncliptrain00764.txt'
p594
sI593
S'actioncliptrain00676.txt'
p595
sI594
S'actioncliptrain00237.txt'
p596
sI595
S'actioncliptrain00765.txt'
p597
sI596
S'actioncliptrain00362.txt'
p598
sI597
S'actioncliptrain00238.txt'
p599
sI598
S'actioncliptrain00677.txt'
p600
sI599
S'actioncliptrain00766.txt'
p601
sI600
S'actioncliptrain00239.txt'
p602
sI601
S'actioncliptrain00511.txt'
p603
sI602
S'actioncliptrain00678.txt'
p604
sI603
S'actioncliptrain00108.txt'
p605
sI604
S'actioncliptrain00363.txt'
p606
sI605
S'actioncliptrain00679.txt'
p607
sI606
S'actioncliptrain00767.txt'
p608
sI607
S'actioncliptrain00512.txt'
p609
sI608
S'actioncliptrain00109.txt'
p610
sI609
S'actioncliptrain00680.txt'
p611
sI610
S'actioncliptrain00364.txt'
p612
sI611
S'actioncliptrain00513.txt'
p613
sI612
S'actioncliptrain00110.txt'
p614
sI613
S'actioncliptrain00514.txt'
p615
sI614
S'actioncliptrain00768.txt'
p616
sI615
S'actioncliptrain00515.txt'
p617
sI616
S'actioncliptrain00111.txt'
p618
sI617
S'actioncliptrain00681.txt'
p619
sI618
S'actioncliptrain00769.txt'
p620
sI619
S'actioncliptrain00240.txt'
p621
sI620
S'actioncliptrain00682.txt'
p622
sI621
S'actioncliptrain00365.txt'
p623
sI622
S'actioncliptrain00241.txt'
p624
sI623
S'actioncliptrain00516.txt'
p625
sI624
S'actioncliptrain00683.txt'
p626
sI625
S'actioncliptrain00366.txt'
p627
sI626
S'actioncliptrain00517.txt'
p628
sI627
S'actioncliptrain00242.txt'
p629
sI628
S'actioncliptrain00243.txt'
p630
sI629
S'actioncliptrain00684.txt'
p631
sI630
S'actioncliptrain00770.txt'
p632
sI631
S'actioncliptrain00518.txt'
p633
sI632
S'actioncliptrain00112.txt'
p634
sI633
S'actioncliptrain00244.txt'
p635
sI634
S'actioncliptrain00519.txt'
p636
sI635
S'actioncliptrain00771.txt'
p637
sI636
S'actioncliptrain00245.txt'
p638
sI637
S'actioncliptrain00113.txt'
p639
sI638
S'actioncliptrain00772.txt'
p640
sI639
S'actioncliptrain00246.txt'
p641
sI640
S'actioncliptrain00367.txt'
p642
sI641
S'actioncliptrain00114.txt'
p643
sI642
S'actioncliptrain00685.txt'
p644
sI643
S'actioncliptrain00247.txt'
p645
sI644
S'actioncliptrain00773.txt'
p646
sI645
S'actioncliptrain00248.txt'
p647
sI646
S'actioncliptrain00686.txt'
p648
sI647
S'actioncliptrain00249.txt'
p649
sI648
S'actioncliptrain00774.txt'
p650
sI649
S'actioncliptrain00520.txt'
p651
sI650
S'actioncliptrain00368.txt'
p652
sI651
S'actioncliptrain00115.txt'
p653
sI652
S'actioncliptrain00521.txt'
p654
sI653
S'actioncliptrain00369.txt'
p655
sI654
S'actioncliptrain00775.txt'
p656
sI655
S'actioncliptrain00370.txt'
p657
sI656
S'actioncliptrain00116.txt'
p658
sI657
S'actioncliptrain00117.txt'
p659
sI658
S'actioncliptrain00250.txt'
p660
sI659
S'actioncliptrain00522.txt'
p661
sI660
S'actioncliptrain00251.txt'
p662
sI661
S'actioncliptrain00523.txt'
p663
sI662
S'actioncliptrain00371.txt'
p664
sI663
S'actioncliptrain00118.txt'
p665
sI664
S'actioncliptrain00252.txt'
p666
sI665
S'actioncliptrain00524.txt'
p667
sI666
S'actioncliptrain00372.txt'
p668
sI667
S'actioncliptrain00525.txt'
p669
sI668
S'actioncliptrain00373.txt'
p670
sI669
S'actioncliptrain00526.txt'
p671
sI670
S'actioncliptrain00374.txt'
p672
sI671
S'actioncliptrain00375.txt'
p673
sI672
S'actioncliptrain00119.txt'
p674
sI673
S'actioncliptrain00253.txt'
p675
sI674
S'actioncliptrain00527.txt'
p676
sI675
S'actioncliptrain00254.txt'
p677
sI676
S'actioncliptrain00120.txt'
p678
sI677
S'actioncliptrain00528.txt'
p679
sI678
S'actioncliptrain00376.txt'
p680
sI679
S'actioncliptrain00255.txt'
p681
sI680
S'actioncliptrain00121.txt'
p682
sI681
S'actioncliptrain00256.txt'
p683
sI682
S'actioncliptrain00122.txt'
p684
sI683
S'actioncliptrain00377.txt'
p685
sI684
S'actioncliptrain00257.txt'
p686
sI685
S'actioncliptrain00123.txt'
p687
sI686
S'actioncliptrain00529.txt'
p688
sI687
S'actioncliptrain00378.txt'
p689
sI688
S'actioncliptrain00379.txt'
p690
sI689
S'actioncliptrain00124.txt'
p691
sI690
S'actioncliptrain00380.txt'
p692
sI691
S'actioncliptrain00258.txt'
p693
sI692
S'actioncliptrain00381.txt'
p694
sI693
S'actioncliptrain00382.txt'
p695
sI694
S'actioncliptrain00530.txt'
p696
sI695
S'actioncliptrain00125.txt'
p697
sI696
S'actioncliptrain00531.txt'
p698
sI697
S'actioncliptrain00383.txt'
p699
sI698
S'actioncliptrain00259.txt'
p700
sI699
S'actioncliptrain00532.txt'
p701
sI700
S'actioncliptrain00384.txt'
p702
sI701
S'actioncliptrain00533.txt'
p703
sI702
S'actioncliptrain00385.txt'
p704
sI703
S'actioncliptrain00386.txt'
p705
sI704
S'actioncliptrain00126.txt'
p706
sI705
S'actioncliptrain00260.txt'
p707
sI706
S'actioncliptrain00127.txt'
p708
sI707
S'actioncliptrain00534.txt'
p709
sI708
S'actioncliptrain00387.txt'
p710
sI709
S'actioncliptrain00261.txt'
p711
sI710
S'actioncliptrain00776.txt'
p712
sI711
S'actioncliptrain00388.txt'
p713
sI712
S'actioncliptrain00262.txt'
p714
sI713
S'actioncliptrain00128.txt'
p715
sI714
S'actioncliptrain00263.txt'
p716
sI715
S'actioncliptrain00535.txt'
p717
sI716
S'actioncliptrain00777.txt'
p718
sI717
S'actioncliptrain00264.txt'
p719
sI718
S'actioncliptrain00129.txt'
p720
sI719
S'actioncliptrain00389.txt'
p721
sI720
S'actioncliptrain00536.txt'
p722
sI721
S'actioncliptrain00537.txt'
p723
sI722
S'actioncliptrain00778.txt'
p724
sI723
S'actioncliptrain00538.txt'
p725
sI724
S'actioncliptrain00130.txt'
p726
sI725
S'actioncliptrain00265.txt'
p727
sI726
S'actioncliptrain00539.txt'
p728
sI727
S'actioncliptrain00779.txt'
p729
sI728
S'actioncliptrain00266.txt'
p730
sI729
S'actioncliptrain00131.txt'
p731
sI730
S'actioncliptrain00540.txt'
p732
sI731
S'actioncliptrain00390.txt'
p733
sI732
S'actioncliptrain00267.txt'
p734
sI733
S'actioncliptrain00541.txt'
p735
sI734
S'actioncliptrain00268.txt'
p736
sI735
S'actioncliptrain00269.txt'
p737
sI736
S'actioncliptrain00542.txt'
p738
sI737
S'actioncliptrain00270.txt'
p739
sI738
S'actioncliptrain00543.txt'
p740
sI739
S'actioncliptrain00391.txt'
p741
sI740
S'actioncliptrain00271.txt'
p742
sI741
S'actioncliptrain00544.txt'
p743
sI742
S'actioncliptrain00272.txt'
p744
sI743
S'actioncliptrain00132.txt'
p745
sI744
S'actioncliptrain00273.txt'
p746
sI745
S'actioncliptrain00133.txt'
p747
sI746
S'actioncliptrain00545.txt'
p748
sI747
S'actioncliptrain00274.txt'
p749
sI748
S'actioncliptrain00275.txt'
p750
sI749
S'actioncliptrain00392.txt'
p751
sI750
S'actioncliptrain00546.txt'
p752
sI751
S'actioncliptrain00393.txt'
p753
sI752
S'actioncliptrain00547.txt'
p754
sI753
S'actioncliptrain00394.txt'
p755
sI754
S'actioncliptrain00548.txt'
p756
sI755
S'actioncliptrain00134.txt'
p757
sI756
S'actioncliptrain00549.txt'
p758
sI757
S'actioncliptrain00395.txt'
p759
sI758
S'actioncliptrain00780.txt'
p760
sI759
S'actioncliptrain00135.txt'
p761
sI760
S'actioncliptrain00396.txt'
p762
sI761
S'actioncliptrain00781.txt'
p763
sI762
S'actioncliptrain00136.txt'
p764
sI763
S'actioncliptrain00397.txt'
p765
sI764
S'actioncliptrain00137.txt'
p766
sI765
S'actioncliptrain00782.txt'
p767
sI766
S'actioncliptrain00138.txt'
p768
sI767
S'actioncliptrain00398.txt'
p769
sI768
S'actioncliptrain00783.txt'
p770
sI769
S'actioncliptrain00399.txt'
p771
sI770
S'actioncliptrain00784.txt'
p772
sI771
S'actioncliptrain00400.txt'
p773
sI772
S'actioncliptrain00401.txt'
p774
sI773
S'actioncliptrain00785.txt'
p775
sI774
S'actioncliptrain00402.txt'
p776
sI775
S'actioncliptrain00403.txt'
p777
sI776
S'actioncliptrain00786.txt'
p778
sI777
S'actioncliptrain00404.txt'
p779
sI778
S'actioncliptrain00405.txt'
p780
sI779
S'actioncliptrain00406.txt'
p781
sI780
S'actioncliptrain00787.txt'
p782
sI781
S'actioncliptrain00407.txt'
p783
sI782
S'actioncliptrain00788.txt'
p784
sI783
S'actioncliptrain00408.txt'
p785
sI784
S'actioncliptrain00789.txt'
p786
sI785
S'actioncliptrain00409.txt'
p787
sI786
S'actioncliptrain00410.txt'
p788
sI787
S'actioncliptrain00790.txt'
p789
sI788
S'actioncliptrain00411.txt'
p790
sI789
S'actioncliptrain00791.txt'
p791
sI790
S'actioncliptrain00412.txt'
p792
sI791
S'actioncliptrain00792.txt'
p793
sI792
S'actioncliptrain00793.txt'
p794
sI793
S'actioncliptrain00794.txt'
p795
sI794
S'actioncliptrain00795.txt'
p796
sI795
S'actioncliptrain00796.txt'
p797
sI796
S'actioncliptrain00797.txt'
p798
sI797
S'actioncliptrain00798.txt'
p799
sI798
S'actioncliptrain00799.txt'
p800
sI799
S'actioncliptrain00800.txt'
p801
sI800
S'actioncliptrain00801.txt'
p802
sI801
S'actioncliptrain00802.txt'
p803
sI802
S'actioncliptrain00803.txt'
p804
sI803
S'actioncliptrain00804.txt'
p805
sI804
S'actioncliptrain00805.txt'
p806
sI805
S'actioncliptrain00806.txt'
p807
sI806
S'actioncliptrain00807.txt'
p808
sI807
S'actioncliptrain00808.txt'
p809
sI808
S'actioncliptrain00809.txt'
p810
sI809
S'actioncliptrain00810.txt'
p811
sI810
S'actioncliptrain00811.txt'
p812
sI811
S'actioncliptrain00812.txt'
p813
sI812
S'actioncliptrain00813.txt'
p814
sI813
S'actioncliptrain00814.txt'
p815
sI814
S'actioncliptrain00815.txt'
p816
sI815
S'actioncliptrain00816.txt'
p817
sI816
S'actioncliptrain00817.txt'
p818
sI817
S'actioncliptrain00818.txt'
p819
sI818
S'actioncliptrain00819.txt'
p820
sI819
S'actioncliptrain00820.txt'
p821
sI820
S'actioncliptrain00821.txt'
p822
sI821
S'actioncliptrain00822.txt'
p823
sI822
S'actioncliptrain00823.txt'
p824
s.