(dp1
S'actioncliptrain00682.txt'
p2
I620
sS'actioncliptrain00657.txt'
p3
I480
sS'actioncliptrain00466.txt'
p4
I350
sS'actioncliptrain00818.txt'
p5
I817
sS'actioncliptrain00327.txt'
p6
I389
sS'actioncliptrain00380.txt'
p7
I690
sS'actioncliptrain00731.txt'
p8
I321
sS'actioncliptrain00419.txt'
p9
I69
sS'actioncliptrain00392.txt'
p10
I749
sS'actioncliptrain00642.txt'
p11
I427
sS'actioncliptrain00789.txt'
p12
I784
sS'actioncliptrain00072.txt'
p13
I377
sS'actioncliptrain00044.txt'
p14
I229
sS'actioncliptrain00379.txt'
p15
I688
sS'actioncliptrain00345.txt'
p16
I472
sS'actioncliptrain00210.txt'
p17
I380
sS'actioncliptrain00150.txt'
p18
I49
sS'actioncliptrain00532.txt'
p19
I699
sS'actioncliptrain00054.txt'
p20
I282
sS'actioncliptrain00480.txt'
p21
I420
sS'actioncliptrain00113.txt'
p22
I637
sS'actioncliptrain00230.txt'
p23
I571
sS'actioncliptrain00452.txt'
p24
I286
sS'actioncliptrain00108.txt'
p25
I603
sS'actioncliptrain00233.txt'
p26
I584
sS'actioncliptrain00357.txt'
p27
I528
sS'actioncliptrain00293.txt'
p28
I137
sS'actioncliptrain00021.txt'
p29
I110
sS'actioncliptrain00299.txt'
p30
I191
sS'actioncliptrain00756.txt'
p31
I554
sS'actioncliptrain00442.txt'
p32
I248
sS'actioncliptrain00296.txt'
p33
I165
sS'actioncliptrain00334.txt'
p34
I414
sS'actioncliptrain00511.txt'
p35
I601
sS'actioncliptrain00695.txt'
p36
I48
sS'actioncliptrain00386.txt'
p37
I703
sS'actioncliptrain00810.txt'
p38
I809
sS'actioncliptrain00188.txt'
p39
I216
sS'actioncliptrain00515.txt'
p40
I615
sS'actioncliptrain00134.txt'
p41
I755
sS'actioncliptrain00638.txt'
p42
I418
sS'actioncliptrain00195.txt'
p43
I264
sS'actioncliptrain00485.txt'
p44
I436
sS'actioncliptrain00418.txt'
p45
I61
sS'actioncliptrain00787.txt'
p46
I780
sS'actioncliptrain00074.txt'
p47
I387
sS'actioncliptrain00304.txt'
p48
I231
sS'actioncliptrain00590.txt'
p49
I211
sS'actioncliptrain00262.txt'
p50
I712
sS'actioncliptrain00043.txt'
p51
I224
sS'actioncliptrain00390.txt'
p52
I731
sS'actioncliptrain00693.txt'
p53
I36
sS'actioncliptrain00432.txt'
p54
I206
sS'actioncliptrain00664.txt'
p55
I512
sS'actioncliptrain00319.txt'
p56
I341
sS'actioncliptrain00689.txt'
p57
I14
sS'actioncliptrain00268.txt'
p58
I734
sS'actioncliptrain00645.txt'
p59
I433
sS'actioncliptrain00781.txt'
p60
I761
sS'actioncliptrain00365.txt'
p61
I621
sS'actioncliptrain00698.txt'
p62
I62
sS'actioncliptrain00655.txt'
p63
I475
sS'actioncliptrain00820.txt'
p64
I819
sS'actioncliptrain00085.txt'
p65
I484
sS'actioncliptrain00057.txt'
p66
I305
sS'actioncliptrain00675.txt'
p67
I585
sS'actioncliptrain00465.txt'
p68
I343
sS'actioncliptrain00470.txt'
p69
I379
sS'actioncliptrain00338.txt'
p70
I444
sS'actioncliptrain00409.txt'
p71
I785
sS'actioncliptrain00649.txt'
p72
I453
sS'actioncliptrain00197.txt'
p73
I285
sS'actioncliptrain00011.txt'
p74
I64
sS'actioncliptrain00413.txt'
p75
I3
sS'actioncliptrain00658.txt'
p76
I483
sS'actioncliptrain00743.txt'
p77
I464
sS'actioncliptrain00635.txt'
p78
I404
sS'actioncliptrain00792.txt'
p79
I791
sS'actioncliptrain00430.txt'
p80
I190
sS'actioncliptrain00701.txt'
p81
I80
sS'actioncliptrain00736.txt'
p82
I392
sS'actioncliptrain00630.txt'
p83
I372
sS'actioncliptrain00003.txt'
p84
I12
sS'actioncliptrain00796.txt'
p85
I795
sS'actioncliptrain00722.txt'
p86
I183
sS'actioncliptrain00559.txt'
p87
I70
sS'actioncliptrain00389.txt'
p88
I719
sS'actioncliptrain00139.txt'
p89
I1
sS'actioncliptrain00336.txt'
p90
I434
sS'actioncliptrain00595.txt'
p91
I240
sS'actioncliptrain00463.txt'
p92
I335
sS'actioncliptrain00301.txt'
p93
I215
sS'actioncliptrain00275.txt'
p94
I748
sS'actioncliptrain00540.txt'
p95
I730
sS'actioncliptrain00684.txt'
p96
I629
sS'actioncliptrain00100.txt'
p97
I566
sS'actioncliptrain00640.txt'
p98
I423
sS'actioncliptrain00118.txt'
p99
I663
sS'actioncliptrain00362.txt'
p100
I596
sS'actioncliptrain00611.txt'
p101
I287
sS'actioncliptrain00498.txt'
p102
I517
sS'actioncliptrain00151.txt'
p103
I57
sS'actioncliptrain00329.txt'
p104
I398
sS'actioncliptrain00041.txt'
p105
I207
sS'actioncliptrain00650.txt'
p106
I455
sS'actioncliptrain00013.txt'
p107
I79
sS'actioncliptrain00598.txt'
p108
I246
sS'actioncliptrain00585.txt'
p109
I187
sS'actioncliptrain00617.txt'
p110
I313
sS'actioncliptrain00607.txt'
p111
I270
sS'actioncliptrain00472.txt'
p112
I385
sS'actioncliptrain00448.txt'
p113
I273
sS'actioncliptrain00745.txt'
p114
I469
sS'actioncliptrain00186.txt'
p115
I210
sS'actioncliptrain00492.txt'
p116
I481
sS'actioncliptrain00506.txt'
p117
I564
sS'actioncliptrain00088.txt'
p118
I504
sS'actioncliptrain00162.txt'
p119
I98
sS'actioncliptrain00309.txt'
p120
I284
sS'actioncliptrain00087.txt'
p121
I499
sS'actioncliptrain00660.txt'
p122
I490
sS'actioncliptrain00626.txt'
p123
I351
sS'actioncliptrain00491.txt'
p124
I470
sS'actioncliptrain00374.txt'
p125
I670
sS'actioncliptrain00520.txt'
p126
I649
sS'actioncliptrain00567.txt'
p127
I114
sS'actioncliptrain00247.txt'
p128
I643
sS'actioncliptrain00281.txt'
p129
I29
sS'actioncliptrain00395.txt'
p130
I757
sS'actioncliptrain00551.txt'
p131
I8
sS'actioncliptrain00544.txt'
p132
I741
sS'actioncliptrain00142.txt'
p133
I18
sS'actioncliptrain00163.txt'
p134
I118
sS'actioncliptrain00407.txt'
p135
I781
sS'actioncliptrain00062.txt'
p136
I336
sS'actioncliptrain00140.txt'
p137
I7
sS'actioncliptrain00703.txt'
p138
I88
sS'actioncliptrain00375.txt'
p139
I671
sS'actioncliptrain00098.txt'
p140
I557
sS'actioncliptrain00591.txt'
p141
I221
sS'actioncliptrain00059.txt'
p142
I317
sS'actioncliptrain00562.txt'
p143
I87
sS'actioncliptrain00495.txt'
p144
I493
sS'actioncliptrain00102.txt'
p145
I575
sS'actioncliptrain00758.txt'
p146
I559
sS'actioncliptrain00500.txt'
p147
I523
sS'actioncliptrain00259.txt'
p148
I698
sS'actioncliptrain00750.txt'
p149
I511
sS'actioncliptrain00124.txt'
p150
I689
sS'actioncliptrain00064.txt'
p151
I354
sS'actioncliptrain00035.txt'
p152
I189
sS'actioncliptrain00287.txt'
p153
I54
sS'actioncliptrain00753.txt'
p154
I534
sS'actioncliptrain00639.txt'
p155
I421
sS'actioncliptrain00071.txt'
p156
I373
sS'actioncliptrain00018.txt'
p157
I103
sS'actioncliptrain00283.txt'
p158
I35
sS'actioncliptrain00766.txt'
p159
I599
sS'actioncliptrain00816.txt'
p160
I815
sS'actioncliptrain00132.txt'
p161
I743
sS'actioncliptrain00155.txt'
p162
I73
sS'actioncliptrain00416.txt'
p163
I44
sS'actioncliptrain00453.txt'
p164
I288
sS'actioncliptrain00523.txt'
p165
I661
sS'actioncliptrain00779.txt'
p166
I727
sS'actioncliptrain00227.txt'
p167
I558
sS'actioncliptrain00571.txt'
p168
I132
sS'actioncliptrain00183.txt'
p169
I197
sS'actioncliptrain00488.txt'
p170
I446
sS'actioncliptrain00006.txt'
p171
I26
sS'actioncliptrain00586.txt'
p172
I194
sS'actioncliptrain00805.txt'
p173
I804
sS'actioncliptrain00429.txt'
p174
I181
sS'actioncliptrain00051.txt'
p175
I262
sS'actioncliptrain00369.txt'
p176
I653
sS'actioncliptrain00045.txt'
p177
I234
sS'actioncliptrain00400.txt'
p178
I771
sS'actioncliptrain00536.txt'
p179
I720
sS'actioncliptrain00697.txt'
p180
I55
sS'actioncliptrain00114.txt'
p181
I641
sS'actioncliptrain00109.txt'
p182
I608
sS'actioncliptrain00396.txt'
p183
I760
sS'actioncliptrain00624.txt'
p184
I348
sS'actioncliptrain00672.txt'
p185
I551
sS'actioncliptrain00398.txt'
p186
I767
sS'actioncliptrain00770.txt'
p187
I630
sS'actioncliptrain00424.txt'
p188
I120
sS'actioncliptrain00757.txt'
p189
I556
sS'actioncliptrain00475.txt'
p190
I397
sS'actioncliptrain00775.txt'
p191
I654
sS'actioncliptrain00298.txt'
p192
I179
sS'actioncliptrain00153.txt'
p193
I63
sS'actioncliptrain00447.txt'
p194
I272
sS'actioncliptrain00742.txt'
p195
I448
sS'actioncliptrain00385.txt'
p196
I702
sS'actioncliptrain00718.txt'
p197
I158
sS'actioncliptrain00580.txt'
p198
I171
sS'actioncliptrain00513.txt'
p199
I611
sS'actioncliptrain00822.txt'
p200
I821
sS'actioncliptrain00330.txt'
p201
I401
sS'actioncliptrain00483.txt'
p202
I428
sS'actioncliptrain00677.txt'
p203
I598
sS'actioncliptrain00346.txt'
p204
I474
sS'actioncliptrain00015.txt'
p205
I93
sS'actioncliptrain00272.txt'
p206
I742
sS'actioncliptrain00497.txt'
p207
I505
sS'actioncliptrain00254.txt'
p208
I675
sS'actioncliptrain00128.txt'
p209
I713
sS'actioncliptrain00714.txt'
p210
I134
sS'actioncliptrain00665.txt'
p211
I516
sS'actioncliptrain00542.txt'
p212
I736
sS'actioncliptrain00126.txt'
p213
I704
sS'actioncliptrain00516.txt'
p214
I623
sS'actioncliptrain00629.txt'
p215
I358
sS'actioncliptrain00712.txt'
p216
I125
sS'actioncliptrain00724.txt'
p217
I214
sS'actioncliptrain00178.txt'
p218
I180
sS'actioncliptrain00803.txt'
p219
I802
sS'actioncliptrain00218.txt'
p220
I478
sS'actioncliptrain00388.txt'
p221
I711
sS'actioncliptrain00277.txt'
p222
I11
sS'actioncliptrain00535.txt'
p223
I715
sS'actioncliptrain00278.txt'
p224
I19
sS'actioncliptrain00031.txt'
p225
I168
sS'actioncliptrain00460.txt'
p226
I327
sS'actioncliptrain00205.txt'
p227
I352
sS'actioncliptrain00364.txt'
p228
I610
sS'actioncliptrain00294.txt'
p229
I141
sS'actioncliptrain00746.txt'
p230
I492
sS'actioncliptrain00160.txt'
p231
I90
sS'actioncliptrain00359.txt'
p232
I533
sS'actioncliptrain00212.txt'
p233
I399
sS'actioncliptrain00342.txt'
p234
I458
sS'actioncliptrain00519.txt'
p235
I634
sS'actioncliptrain00534.txt'
p236
I707
sS'actioncliptrain00288.txt'
p237
I58
sS'actioncliptrain00737.txt'
p238
I417
sS'actioncliptrain00797.txt'
p239
I796
sS'actioncliptrain00101.txt'
p240
I570
sS'actioncliptrain00426.txt'
p241
I133
sS'actioncliptrain00061.txt'
p242
I333
sS'actioncliptrain00807.txt'
p243
I806
sS'actioncliptrain00688.txt'
p244
I10
sS'actioncliptrain00486.txt'
p245
I440
sS'actioncliptrain00328.txt'
p246
I396
sS'actioncliptrain00256.txt'
p247
I681
sS'actioncliptrain00541.txt'
p248
I733
sS'actioncliptrain00499.txt'
p249
I520
sS'actioncliptrain00270.txt'
p250
I737
sS'actioncliptrain00510.txt'
p251
I586
sS'actioncliptrain00170.txt'
p252
I145
sS'actioncliptrain00666.txt'
p253
I522
sS'actioncliptrain00076.txt'
p254
I400
sS'actioncliptrain00459.txt'
p255
I322
sS'actioncliptrain00763.txt'
p256
I583
sS'actioncliptrain00512.txt'
p257
I607
sS'actioncliptrain00606.txt'
p258
I268
sS'actioncliptrain00547.txt'
p259
I752
sS'actioncliptrain00119.txt'
p260
I672
sS'actioncliptrain00228.txt'
p261
I563
sS'actioncliptrain00300.txt'
p262
I201
sS'actioncliptrain00236.txt'
p263
I590
sS'actioncliptrain00206.txt'
p264
I362
sS'actioncliptrain00169.txt'
p265
I142
sS'actioncliptrain00685.txt'
p266
I642
sS'actioncliptrain00525.txt'
p267
I667
sS'actioncliptrain00089.txt'
p268
I507
sS'actioncliptrain00028.txt'
p269
I148
sS'actioncliptrain00060.txt'
p270
I320
sS'actioncliptrain00240.txt'
p271
I619
sS'actioncliptrain00704.txt'
p272
I91
sS'actioncliptrain00394.txt'
p273
I753
sS'actioncliptrain00632.txt'
p274
I393
sS'actioncliptrain00462.txt'
p275
I331
sS'actioncliptrain00001.txt'
p276
I0
sS'actioncliptrain00410.txt'
p277
I786
sS'actioncliptrain00493.txt'
p278
I485
sS'actioncliptrain00433.txt'
p279
I213
sS'actioncliptrain00529.txt'
p280
I686
sS'actioncliptrain00439.txt'
p281
I238
sS'actioncliptrain00622.txt'
p282
I340
sS'actioncliptrain00436.txt'
p283
I225
sS'actioncliptrain00554.txt'
p284
I45
sS'actioncliptrain00222.txt'
p285
I540
sS'actioncliptrain00401.txt'
p286
I772
sS'actioncliptrain00317.txt'
p287
I330
sS'actioncliptrain00221.txt'
p288
I513
sS'actioncliptrain00096.txt'
p289
I547
sS'actioncliptrain00457.txt'
p290
I316
sS'actioncliptrain00760.txt'
p291
I569
sS'actioncliptrain00678.txt'
p292
I602
sS'actioncliptrain00683.txt'
p293
I624
sS'actioncliptrain00564.txt'
p294
I99
sS'actioncliptrain00004.txt'
p295
I16
sS'actioncliptrain00730.txt'
p296
I318
sS'actioncliptrain00800.txt'
p297
I799
sS'actioncliptrain00110.txt'
p298
I612
sS'actioncliptrain00351.txt'
p299
I502
sS'actioncliptrain00652.txt'
p300
I462
sS'actioncliptrain00702.txt'
p301
I84
sS'actioncliptrain00592.txt'
p302
I232
sS'actioncliptrain00034.txt'
p303
I186
sS'actioncliptrain00344.txt'
p304
I465
sS'actioncliptrain00579.txt'
p305
I160
sS'actioncliptrain00242.txt'
p306
I627
sS'actioncliptrain00706.txt'
p307
I100
sS'actioncliptrain00297.txt'
p308
I169
sS'actioncliptrain00199.txt'
p309
I295
sS'actioncliptrain00817.txt'
p310
I816
sS'actioncliptrain00594.txt'
p311
I237
sS'actioncliptrain00441.txt'
p312
I245
sS'actioncliptrain00548.txt'
p313
I754
sS'actioncliptrain00505.txt'
p314
I560
sS'actioncliptrain00058.txt'
p315
I310
sS'actioncliptrain00769.txt'
p316
I618
sS'actioncliptrain00605.txt'
p317
I266
sS'actioncliptrain00282.txt'
p318
I32
sS'actioncliptrain00610.txt'
p319
I281
sS'actioncliptrain00558.txt'
p320
I65
sS'actioncliptrain00315.txt'
p321
I314
sS'actioncliptrain00349.txt'
p322
I491
sS'actioncliptrain00793.txt'
p323
I792
sS'actioncliptrain00332.txt'
p324
I408
sS'actioncliptrain00373.txt'
p325
I668
sS'actioncliptrain00234.txt'
p326
I587
sS'actioncliptrain00174.txt'
p327
I159
sS'actioncliptrain00651.txt'
p328
I459
sS'actioncliptrain00583.txt'
p329
I178
sS'actioncliptrain00326.txt'
p330
I386
sS'actioncliptrain00673.txt'
p331
I562
sS'actioncliptrain00002.txt'
p332
I6
sS'actioncliptrain00537.txt'
p333
I721
sS'actioncliptrain00393.txt'
p334
I751
sS'actioncliptrain00372.txt'
p335
I666
sS'actioncliptrain00719.txt'
p336
I161
sS'actioncliptrain00608.txt'
p337
I274
sS'actioncliptrain00225.txt'
p338
I552
sS'actioncliptrain00474.txt'
p339
I394
sS'actioncliptrain00255.txt'
p340
I679
sS'actioncliptrain00279.txt'
p341
I21
sS'actioncliptrain00023.txt'
p342
I113
sS'actioncliptrain00412.txt'
p343
I790
sS'actioncliptrain00556.txt'
p344
I56
sS'actioncliptrain00019.txt'
p345
I106
sS'actioncliptrain00735.txt'
p346
I374
sS'actioncliptrain00603.txt'
p347
I261
sS'actioncliptrain00561.txt'
p348
I81
sS'actioncliptrain00243.txt'
p349
I628
sS'actioncliptrain00312.txt'
p350
I294
sS'actioncliptrain00353.txt'
p351
I514
sS'actioncliptrain00347.txt'
p352
I479
sS'actioncliptrain00239.txt'
p353
I600
sS'actioncliptrain00052.txt'
p354
I267
sS'actioncliptrain00094.txt'
p355
I535
sS'actioncliptrain00335.txt'
p356
I429
sS'actioncliptrain00009.txt'
p357
I43
sS'actioncliptrain00253.txt'
p358
I673
sS'actioncliptrain00037.txt'
p359
I195
sS'actioncliptrain00502.txt'
p360
I536
sS'actioncliptrain00549.txt'
p361
I756
sS'actioncliptrain00131.txt'
p362
I729
sS'actioncliptrain00249.txt'
p363
I647
sS'actioncliptrain00668.txt'
p364
I526
sS'actioncliptrain00631.txt'
p365
I384
sS'actioncliptrain00238.txt'
p366
I597
sS'actioncliptrain00725.txt'
p367
I269
sS'actioncliptrain00285.txt'
p368
I46
sS'actioncliptrain00341.txt'
p369
I454
sS'actioncliptrain00258.txt'
p370
I691
sS'actioncliptrain00612.txt'
p371
I296
sS'actioncliptrain00295.txt'
p372
I162
sS'actioncliptrain00801.txt'
p373
I800
sS'actioncliptrain00325.txt'
p374
I383
sS'actioncliptrain00814.txt'
p375
I813
sS'actioncliptrain00628.txt'
p376
I356
sS'actioncliptrain00014.txt'
p377
I83
sS'actioncliptrain00690.txt'
p378
I17
sS'actioncliptrain00200.txt'
p379
I301
sS'actioncliptrain00276.txt'
p380
I2
sS'actioncliptrain00103.txt'
p381
I576
sS'actioncliptrain00780.txt'
p382
I758
sS'actioncliptrain00138.txt'
p383
I766
sS'actioncliptrain00179.txt'
p384
I182
sS'actioncliptrain00363.txt'
p385
I604
sS'actioncliptrain00421.txt'
p386
I89
sS'actioncliptrain00358.txt'
p387
I531
sS'actioncliptrain00478.txt'
p388
I415
sS'actioncliptrain00581.txt'
p389
I175
sS'actioncliptrain00404.txt'
p390
I777
sS'actioncliptrain00047.txt'
p391
I249
sS'actioncliptrain00219.txt'
p392
I487
sS'actioncliptrain00056.txt'
p393
I303
sS'actioncliptrain00674.txt'
p394
I565
sS'actioncliptrain00691.txt'
p395
I24
sS'actioncliptrain00819.txt'
p396
I818
sS'actioncliptrain00823.txt'
p397
I822
sS'actioncliptrain00464.txt'
p398
I338
sS'actioncliptrain00217.txt'
p399
I473
sS'actioncliptrain00010.txt'
p400
I47
sS'actioncliptrain00306.txt'
p401
I260
sS'actioncliptrain00269.txt'
p402
I735
sS'actioncliptrain00193.txt'
p403
I241
sS'actioncliptrain00812.txt'
p404
I811
sS'actioncliptrain00067.txt'
p405
I361
sS'actioncliptrain00012.txt'
p406
I71
sS'actioncliptrain00473.txt'
p407
I388
sS'actioncliptrain00244.txt'
p408
I633
sS'actioncliptrain00310.txt'
p409
I289
sS'actioncliptrain00454.txt'
p410
I293
sS'actioncliptrain00588.txt'
p411
I202
sS'actioncliptrain00403.txt'
p412
I775
sS'actioncliptrain00171.txt'
p413
I149
sS'actioncliptrain00308.txt'
p414
I280
sS'actioncliptrain00337.txt'
p415
I441
sS'actioncliptrain00663.txt'
p416
I508
sS'actioncliptrain00361.txt'
p417
I549
sS'actioncliptrain00423.txt'
p418
I102
sS'actioncliptrain00667.txt'
p419
I524
sS'actioncliptrain00260.txt'
p420
I705
sS'actioncliptrain00676.txt'
p421
I593
sS'actioncliptrain00633.txt'
p422
I395
sS'actioncliptrain00099.txt'
p423
I561
sS'actioncliptrain00487.txt'
p424
I445
sS'actioncliptrain00411.txt'
p425
I788
sS'actioncliptrain00783.txt'
p426
I768
sS'actioncliptrain00726.txt'
p427
I299
sS'actioncliptrain00715.txt'
p428
I140
sS'actioncliptrain00738.txt'
p429
I419
sS'actioncliptrain00305.txt'
p430
I235
sS'actioncliptrain00509.txt'
p431
I578
sS'actioncliptrain00182.txt'
p432
I193
sS'actioncliptrain00402.txt'
p433
I774
sS'actioncliptrain00158.txt'
p434
I85
sS'actioncliptrain00208.txt'
p435
I368
sS'actioncliptrain00371.txt'
p436
I662
sS'actioncliptrain00790.txt'
p437
I787
sS'actioncliptrain00145.txt'
p438
I28
sS'actioncliptrain00091.txt'
p439
I515
sS'actioncliptrain00456.txt'
p440
I308
sS'actioncliptrain00644.txt'
p441
I432
sS'actioncliptrain00615.txt'
p442
I309
sS'actioncliptrain00438.txt'
p443
I236
sS'actioncliptrain00025.txt'
p444
I117
sS'actioncliptrain00350.txt'
p445
I498
sS'actioncliptrain00661.txt'
p446
I501
sS'actioncliptrain00627.txt'
p447
I355
sS'actioncliptrain00083.txt'
p448
I476
sS'actioncliptrain00097.txt'
p449
I553
sS'actioncliptrain00215.txt'
p450
I452
sS'actioncliptrain00476.txt'
p451
I403
sS'actioncliptrain00720.txt'
p452
I163
sS'actioncliptrain00550.txt'
p453
I4
sS'actioncliptrain00788.txt'
p454
I782
sS'actioncliptrain00526.txt'
p455
I669
sS'actioncliptrain00191.txt'
p456
I227
sS'actioncliptrain00522.txt'
p457
I659
sS'actioncliptrain00048.txt'
p458
I253
sS'actioncliptrain00166.txt'
p459
I131
sS'actioncliptrain00356.txt'
p460
I527
sS'actioncliptrain00383.txt'
p461
I697
sS'actioncliptrain00172.txt'
p462
I151
sS'actioncliptrain00267.txt'
p463
I732
sS'actioncliptrain00050.txt'
p464
I258
sS'actioncliptrain00224.txt'
p465
I548
sS'actioncliptrain00280.txt'
p466
I27
sS'actioncliptrain00039.txt'
p467
I200
sS'actioncliptrain00066.txt'
p468
I359
sS'actioncliptrain00774.txt'
p469
I648
sS'actioncliptrain00440.txt'
p470
I242
sS'actioncliptrain00093.txt'
p471
I530
sS'actioncliptrain00686.txt'
p472
I646
sS'actioncliptrain00468.txt'
p473
I370
sS'actioncliptrain00717.txt'
p474
I154
sS'actioncliptrain00378.txt'
p475
I687
sS'actioncliptrain00707.txt'
p476
I105
sS'actioncliptrain00415.txt'
p477
I22
sS'actioncliptrain00081.txt'
p478
I457
sS'actioncliptrain00111.txt'
p479
I616
sS'actioncliptrain00148.txt'
p480
I39
sS'actioncliptrain00323.txt'
p481
I367
sS'actioncliptrain00333.txt'
p482
I412
sS'actioncliptrain00600.txt'
p483
I252
sS'actioncliptrain00739.txt'
p484
I438
sS'actioncliptrain00257.txt'
p485
I684
sS'actioncliptrain00133.txt'
p486
I745
sS'actioncliptrain00504.txt'
p487
I550
sS'actioncliptrain00434.txt'
p488
I217
sS'actioncliptrain00692.txt'
p489
I31
sS'actioncliptrain00539.txt'
p490
I726
sS'actioncliptrain00120.txt'
p491
I676
sS'actioncliptrain00314.txt'
p492
I302
sS'actioncliptrain00489.txt'
p493
I450
sS'actioncliptrain00007.txt'
p494
I30
sS'actioncliptrain00149.txt'
p495
I42
sS'actioncliptrain00741.txt'
p496
I447
sS'actioncliptrain00587.txt'
p497
I199
sS'actioncliptrain00008.txt'
p498
I37
sS'actioncliptrain00368.txt'
p499
I650
sS'actioncliptrain00729.txt'
p500
I315
sS'actioncliptrain00263.txt'
p501
I714
sS'actioncliptrain00405.txt'
p502
I778
sS'actioncliptrain00291.txt'
p503
I77
sS'actioncliptrain00646.txt'
p504
I437
sS'actioncliptrain00086.txt'
p505
I494
sS'actioncliptrain00164.txt'
p506
I121
sS'actioncliptrain00053.txt'
p507
I271
sS'actioncliptrain00117.txt'
p508
I657
sS'actioncliptrain00122.txt'
p509
I682
sS'actioncliptrain00573.txt'
p510
I143
sS'actioncliptrain00367.txt'
p511
I640
sS'actioncliptrain00747.txt'
p512
I495
sS'actioncliptrain00490.txt'
p513
I463
sS'actioncliptrain00681.txt'
p514
I617
sS'actioncliptrain00709.txt'
p515
I109
sS'actioncliptrain00032.txt'
p516
I173
sS'actioncliptrain00700.txt'
p517
I75
sS'actioncliptrain00055.txt'
p518
I290
sS'actioncliptrain00036.txt'
p519
I192
sS'actioncliptrain00005.txt'
p520
I25
sS'actioncliptrain00479.txt'
p521
I416
sS'actioncliptrain00806.txt'
p522
I805
sS'actioncliptrain00560.txt'
p523
I74
sS'actioncliptrain00496.txt'
p524
I503
sS'actioncliptrain00130.txt'
p525
I724
sS'actioncliptrain00020.txt'
p526
I108
sS'actioncliptrain00443.txt'
p527
I250
sS'actioncliptrain00593.txt'
p528
I233
sS'actioncliptrain00316.txt'
p529
I324
sS'actioncliptrain00785.txt'
p530
I773
sS'actioncliptrain00387.txt'
p531
I708
sS'actioncliptrain00811.txt'
p532
I810
sS'actioncliptrain00768.txt'
p533
I614
sS'actioncliptrain00679.txt'
p534
I605
sS'actioncliptrain00077.txt'
p535
I405
sS'actioncliptrain00137.txt'
p536
I764
sS'actioncliptrain00602.txt'
p537
I257
sS'actioncliptrain00194.txt'
p538
I247
sS'actioncliptrain00653.txt'
p539
I467
sS'actioncliptrain00767.txt'
p540
I606
sS'actioncliptrain00710.txt'
p541
I116
sS'actioncliptrain00671.txt'
p542
I544
sS'actioncliptrain00656.txt'
p543
I477
sS'actioncliptrain00042.txt'
p544
I218
sS'actioncliptrain00146.txt'
p545
I33
sS'actioncliptrain00030.txt'
p546
I164
sS'actioncliptrain00461.txt'
p547
I328
sS'actioncliptrain00577.txt'
p548
I153
sS'actioncliptrain00192.txt'
p549
I230
sS'actioncliptrain00481.txt'
p550
I422
sS'actioncliptrain00755.txt'
p551
I545
sS'actioncliptrain00318.txt'
p552
I337
sS'actioncliptrain00248.txt'
p553
I645
sS'actioncliptrain00637.txt'
p554
I411
sS'actioncliptrain00445.txt'
p555
I259
sS'actioncliptrain00213.txt'
p556
I413
sS'actioncliptrain00659.txt'
p557
I486
sS'actioncliptrain00203.txt'
p558
I334
sS'actioncliptrain00184.txt'
p559
I205
sS'actioncliptrain00749.txt'
p560
I500
sS'actioncliptrain00229.txt'
p561
I568
sS'actioncliptrain00084.txt'
p562
I482
sS'actioncliptrain00531.txt'
p563
I696
sS'actioncliptrain00648.txt'
p564
I442
sS'actioncliptrain00732.txt'
p565
I323
sS'actioncliptrain00524.txt'
p566
I665
sS'actioncliptrain00303.txt'
p567
I223
sS'actioncliptrain00075.txt'
p568
I391
sS'actioncliptrain00437.txt'
p569
I228
sS'actioncliptrain00734.txt'
p570
I369
sS'actioncliptrain00196.txt'
p571
I278
sS'actioncliptrain00621.txt'
p572
I339
sS'actioncliptrain00017.txt'
p573
I101
sS'actioncliptrain00458.txt'
p574
I319
sS'actioncliptrain00422.txt'
p575
I95
sS'actioncliptrain00428.txt'
p576
I167
sS'actioncliptrain00575.txt'
p577
I147
sS'actioncliptrain00482.txt'
p578
I424
sS'actioncliptrain00245.txt'
p579
I636
sS'actioncliptrain00552.txt'
p580
I13
sS'actioncliptrain00104.txt'
p581
I580
sS'actioncliptrain00494.txt'
p582
I488
sS'actioncliptrain00723.txt'
p583
I196
sS'actioncliptrain00599.txt'
p584
I251
sS'actioncliptrain00352.txt'
p585
I509
sS'actioncliptrain00546.txt'
p586
I750
sS'actioncliptrain00220.txt'
p587
I496
sS'actioncliptrain00261.txt'
p588
I709
sS'actioncliptrain00065.txt'
p589
I357
sS'actioncliptrain00813.txt'
p590
I812
sS'actioncliptrain00274.txt'
p591
I747
sS'actioncliptrain00207.txt'
p592
I364
sS'actioncliptrain00168.txt'
p593
I138
sS'actioncliptrain00105.txt'
p594
I581
sS'actioncliptrain00754.txt'
p595
I542
sS'actioncliptrain00614.txt'
p596
I307
sS'actioncliptrain00167.txt'
p597
I135
sS'actioncliptrain00231.txt'
p598
I579
sS'actioncliptrain00765.txt'
p599
I595
sS'actioncliptrain00802.txt'
p600
I801
sS'actioncliptrain00095.txt'
p601
I539
sS'actioncliptrain00821.txt'
p602
I820
sS'actioncliptrain00040.txt'
p603
I204
sS'actioncliptrain00662.txt'
p604
I506
sS'actioncliptrain00791.txt'
p605
I789
sS'actioncliptrain00759.txt'
p606
I567
sS'actioncliptrain00589.txt'
p607
I208
sS'actioncliptrain00572.txt'
p608
I139
sS'actioncliptrain00533.txt'
p609
I701
sS'actioncliptrain00527.txt'
p610
I674
sS'actioncliptrain00569.txt'
p611
I123
sS'actioncliptrain00555.txt'
p612
I52
sS'actioncliptrain00161.txt'
p613
I92
sS'actioncliptrain00292.txt'
p614
I130
sS'actioncliptrain00156.txt'
p615
I78
sS'actioncliptrain00159.txt'
p616
I86
sS'actioncliptrain00382.txt'
p617
I693
sS'actioncliptrain00744.txt'
p618
I468
sS'actioncliptrain00705.txt'
p619
I96
sS'actioncliptrain00177.txt'
p620
I176
sS'actioncliptrain00408.txt'
p621
I783
sS'actioncliptrain00425.txt'
p622
I127
sS'actioncliptrain00521.txt'
p623
I652
sS'actioncliptrain00173.txt'
p624
I155
sS'actioncliptrain00451.txt'
p625
I283
sS'actioncliptrain00435.txt'
p626
I222
sS'actioncliptrain00223.txt'
p627
I546
sS'actioncliptrain00181.txt'
p628
I188
sS'actioncliptrain00514.txt'
p629
I613
sS'actioncliptrain00545.txt'
p630
I746
sS'actioncliptrain00143.txt'
p631
I20
sS'actioncliptrain00798.txt'
p632
I797
sS'actioncliptrain00136.txt'
p633
I762
sS'actioncliptrain00070.txt'
p634
I371
sS'actioncliptrain00469.txt'
p635
I376
sS'actioncliptrain00794.txt'
p636
I793
sS'actioncliptrain00687.txt'
p637
I5
sS'actioncliptrain00503.txt'
p638
I543
sS'actioncliptrain00641.txt'
p639
I426
sS'actioncliptrain00538.txt'
p640
I723
sS'actioncliptrain00618.txt'
p641
I325
sS'actioncliptrain00721.txt'
p642
I170
sS'actioncliptrain00027.txt'
p643
I136
sS'actioncliptrain00080.txt'
p644
I456
sS'actioncliptrain00455.txt'
p645
I298
sS'actioncliptrain00777.txt'
p646
I716
sS'actioncliptrain00290.txt'
p647
I72
sS'actioncliptrain00740.txt'
p648
I443
sS'actioncliptrain00596.txt'
p649
I243
sS'actioncliptrain00068.txt'
p650
I363
sS'actioncliptrain00604.txt'
p651
I263
sS'actioncliptrain00450.txt'
p652
I279
sS'actioncliptrain00125.txt'
p653
I695
sS'actioncliptrain00175.txt'
p654
I166
sS'actioncliptrain00198.txt'
p655
I291
sS'actioncliptrain00582.txt'
p656
I177
sS'actioncliptrain00339.txt'
p657
I449
sS'actioncliptrain00566.txt'
p658
I111
sS'actioncliptrain00116.txt'
p659
I656
sS'actioncliptrain00772.txt'
p660
I638
sS'actioncliptrain00265.txt'
p661
I725
sS'actioncliptrain00804.txt'
p662
I803
sS'actioncliptrain00776.txt'
p663
I710
sS'actioncliptrain00669.txt'
p664
I537
sS'actioncliptrain00528.txt'
p665
I677
sS'actioncliptrain00699.txt'
p666
I67
sS'actioncliptrain00320.txt'
p667
I345
sS'actioncliptrain00613.txt'
p668
I300
sS'actioncliptrain00073.txt'
p669
I382
sS'actioncliptrain00570.txt'
p670
I129
sS'actioncliptrain00022.txt'
p671
I112
sS'actioncliptrain00209.txt'
p672
I375
sS'actioncliptrain00728.txt'
p673
I311
sS'actioncliptrain00381.txt'
p674
I692
sS'actioncliptrain00471.txt'
p675
I381
sS'actioncliptrain00568.txt'
p676
I119
sS'actioncliptrain00795.txt'
p677
I794
sS'actioncliptrain00557.txt'
p678
I60
sS'actioncliptrain00501.txt'
p679
I529
sS'actioncliptrain00643.txt'
p680
I430
sS'actioncliptrain00477.txt'
p681
I407
sS'actioncliptrain00467.txt'
p682
I353
sS'actioncliptrain00112.txt'
p683
I632
sS'actioncliptrain00752.txt'
p684
I532
sS'actioncliptrain00082.txt'
p685
I466
sS'actioncliptrain00232.txt'
p686
I582
sS'actioncliptrain00565.txt'
p687
I104
sS'actioncliptrain00366.txt'
p688
I625
sS'actioncliptrain00211.txt'
p689
I390
sS'actioncliptrain00250.txt'
p690
I658
sS'actioncliptrain00377.txt'
p691
I683
sS'actioncliptrain00152.txt'
p692
I59
sS'actioncliptrain00761.txt'
p693
I573
sS'actioncliptrain00446.txt'
p694
I265
sS'actioncliptrain00322.txt'
p695
I365
sS'actioncliptrain00189.txt'
p696
I220
sS'actioncliptrain00107.txt'
p697
I591
sS'actioncliptrain00340.txt'
p698
I451
sS'actioncliptrain00307.txt'
p699
I275
sS'actioncliptrain00417.txt'
p700
I51
sS'actioncliptrain00634.txt'
p701
I402
sS'actioncliptrain00024.txt'
p702
I115
sS'actioncliptrain00106.txt'
p703
I588
sS'actioncliptrain00079.txt'
p704
I425
sS'actioncliptrain00331.txt'
p705
I406
sS'actioncliptrain00324.txt'
p706
I378
sS'actioncliptrain00647.txt'
p707
I439
sS'actioncliptrain00251.txt'
p708
I660
sS'actioncliptrain00636.txt'
p709
I410
sS'actioncliptrain00815.txt'
p710
I814
sS'actioncliptrain00711.txt'
p711
I122
sS'actioncliptrain00530.txt'
p712
I694
sS'actioncliptrain00751.txt'
p713
I525
sS'actioncliptrain00190.txt'
p714
I226
sS'actioncliptrain00127.txt'
p715
I706
sS'actioncliptrain00123.txt'
p716
I685
sS'actioncliptrain00033.txt'
p717
I174
sS'actioncliptrain00616.txt'
p718
I312
sS'actioncliptrain00302.txt'
p719
I219
sS'actioncliptrain00235.txt'
p720
I589
sS'actioncliptrain00201.txt'
p721
I306
sS'actioncliptrain00202.txt'
p722
I326
sS'actioncliptrain00360.txt'
p723
I541
sS'actioncliptrain00046.txt'
p724
I239
sS'actioncliptrain00786.txt'
p725
I776
sS'actioncliptrain00216.txt'
p726
I461
sS'actioncliptrain00694.txt'
p727
I41
sS'actioncliptrain00708.txt'
p728
I107
sS'actioncliptrain00115.txt'
p729
I651
sS'actioncliptrain00187.txt'
p730
I212
sS'actioncliptrain00484.txt'
p731
I431
sS'actioncliptrain00420.txt'
p732
I76
sS'actioncliptrain00620.txt'
p733
I332
sS'actioncliptrain00204.txt'
p734
I342
sS'actioncliptrain00273.txt'
p735
I744
sS'actioncliptrain00311.txt'
p736
I292
sS'actioncliptrain00809.txt'
p737
I808
sS'actioncliptrain00343.txt'
p738
I460
sS'actioncliptrain00518.txt'
p739
I631
sS'actioncliptrain00289.txt'
p740
I66
sS'actioncliptrain00029.txt'
p741
I152
sS'actioncliptrain00748.txt'
p742
I497
sS'actioncliptrain00778.txt'
p743
I722
sS'actioncliptrain00543.txt'
p744
I738
sS'actioncliptrain00391.txt'
p745
I739
sS'actioncliptrain00553.txt'
p746
I40
sS'actioncliptrain00165.txt'
p747
I126
sS'actioncliptrain00016.txt'
p748
I97
sS'actioncliptrain00266.txt'
p749
I728
sS'actioncliptrain00762.txt'
p750
I577
sS'actioncliptrain00654.txt'
p751
I471
sS'actioncliptrain00444.txt'
p752
I254
sS'actioncliptrain00144.txt'
p753
I23
sS'actioncliptrain00574.txt'
p754
I144
sS'actioncliptrain00782.txt'
p755
I765
sS'actioncliptrain00284.txt'
p756
I38
sS'actioncliptrain00727.txt'
p757
I304
sS'actioncliptrain00185.txt'
p758
I209
sS'actioncliptrain00271.txt'
p759
I740
sS'actioncliptrain00397.txt'
p760
I763
sS'actioncliptrain00508.txt'
p761
I574
sS'actioncliptrain00431.txt'
p762
I203
sS'actioncliptrain00090.txt'
p763
I510
sS'actioncliptrain00696.txt'
p764
I53
sS'actioncliptrain00038.txt'
p765
I198
sS'actioncliptrain00348.txt'
p766
I489
sS'actioncliptrain00141.txt'
p767
I15
sS'actioncliptrain00716.txt'
p768
I146
sS'actioncliptrain00507.txt'
p769
I572
sS'actioncliptrain00237.txt'
p770
I594
sS'actioncliptrain00771.txt'
p771
I635
sS'actioncliptrain00764.txt'
p772
I592
sS'actioncliptrain00157.txt'
p773
I82
sS'actioncliptrain00414.txt'
p774
I9
sS'actioncliptrain00214.txt'
p775
I435
sS'actioncliptrain00264.txt'
p776
I717
sS'actioncliptrain00449.txt'
p777
I276
sS'actioncliptrain00609.txt'
p778
I277
sS'actioncliptrain00584.txt'
p779
I184
sS'actioncliptrain00517.txt'
p780
I626
sS'actioncliptrain00246.txt'
p781
I639
sS'actioncliptrain00619.txt'
p782
I329
sS'actioncliptrain00049.txt'
p783
I256
sS'actioncliptrain00180.txt'
p784
I185
sS'actioncliptrain00623.txt'
p785
I346
sS'actioncliptrain00733.txt'
p786
I344
sS'actioncliptrain00576.txt'
p787
I150
sS'actioncliptrain00355.txt'
p788
I521
sS'actioncliptrain00313.txt'
p789
I297
sS'actioncliptrain00092.txt'
p790
I519
sS'actioncliptrain00680.txt'
p791
I609
sS'actioncliptrain00026.txt'
p792
I124
sS'actioncliptrain00129.txt'
p793
I718
sS'actioncliptrain00147.txt'
p794
I34
sS'actioncliptrain00252.txt'
p795
I664
sS'actioncliptrain00427.txt'
p796
I157
sS'actioncliptrain00354.txt'
p797
I518
sS'actioncliptrain00773.txt'
p798
I644
sS'actioncliptrain00069.txt'
p799
I366
sS'actioncliptrain00406.txt'
p800
I779
sS'actioncliptrain00597.txt'
p801
I244
sS'actioncliptrain00670.txt'
p802
I538
sS'actioncliptrain00376.txt'
p803
I678
sS'actioncliptrain00601.txt'
p804
I255
sS'actioncliptrain00286.txt'
p805
I50
sS'actioncliptrain00078.txt'
p806
I409
sS'actioncliptrain00578.txt'
p807
I156
sS'actioncliptrain00176.txt'
p808
I172
sS'actioncliptrain00713.txt'
p809
I128
sS'actioncliptrain00625.txt'
p810
I349
sS'actioncliptrain00226.txt'
p811
I555
sS'actioncliptrain00399.txt'
p812
I769
sS'actioncliptrain00321.txt'
p813
I360
sS'actioncliptrain00121.txt'
p814
I680
sS'actioncliptrain00135.txt'
p815
I759
sS'actioncliptrain00799.txt'
p816
I798
sS'actioncliptrain00063.txt'
p817
I347
sS'actioncliptrain00370.txt'
p818
I655
sS'actioncliptrain00154.txt'
p819
I68
sS'actioncliptrain00241.txt'
p820
I622
sS'actioncliptrain00808.txt'
p821
I807
sS'actioncliptrain00784.txt'
p822
I770
sS'actioncliptrain00563.txt'
p823
I94
sS'actioncliptrain00384.txt'
p824
I700
s.