(dp1
S'actioncliptrain00682.txt'
p2
I81306
sS'actioncliptrain00657.txt'
p3
I47074
sS'actioncliptrain00466.txt'
p4
I46241
sS'actioncliptrain00818.txt'
p5
I366641
sS'actioncliptrain00327.txt'
p6
I58702
sS'actioncliptrain00380.txt'
p7
I69555
sS'actioncliptrain00731.txt'
p8
I6479
sS'actioncliptrain00419.txt'
p9
I64975
sS'actioncliptrain00392.txt'
p10
I91754
sS'actioncliptrain00642.txt'
p11
I31636
sS'actioncliptrain00789.txt'
p12
I125920
sS'actioncliptrain00072.txt'
p13
I94560
sS'actioncliptrain00044.txt'
p14
I103042
sS'actioncliptrain00379.txt'
p15
I59774
sS'actioncliptrain00345.txt'
p16
I51753
sS'actioncliptrain00210.txt'
p17
I61522
sS'actioncliptrain00150.txt'
p18
I63101
sS'actioncliptrain00532.txt'
p19
I62269
sS'actioncliptrain00054.txt'
p20
I320435
sS'actioncliptrain00480.txt'
p21
I39681
sS'actioncliptrain00113.txt'
p22
I274447
sS'actioncliptrain00230.txt'
p23
I69376
sS'actioncliptrain00452.txt'
p24
I59790
sS'actioncliptrain00108.txt'
p25
I35724
sS'actioncliptrain00233.txt'
p26
I24369
sS'actioncliptrain00357.txt'
p27
I113784
sS'actioncliptrain00293.txt'
p28
I73341
sS'actioncliptrain00021.txt'
p29
I10162
sS'actioncliptrain00299.txt'
p30
I121487
sS'actioncliptrain00756.txt'
p31
I38336
sS'actioncliptrain00442.txt'
p32
I10935
sS'actioncliptrain00296.txt'
p33
I63717
sS'actioncliptrain00334.txt'
p34
I71102
sS'actioncliptrain00511.txt'
p35
I46245
sS'actioncliptrain00695.txt'
p36
I42065
sS'actioncliptrain00386.txt'
p37
I124037
sS'actioncliptrain00810.txt'
p38
I29323
sS'actioncliptrain00188.txt'
p39
I24902
sS'actioncliptrain00515.txt'
p40
I178384
sS'actioncliptrain00134.txt'
p41
I305453
sS'actioncliptrain00638.txt'
p42
I5473
sS'actioncliptrain00195.txt'
p43
I213831
sS'actioncliptrain00485.txt'
p44
I64970
sS'actioncliptrain00418.txt'
p45
I136824
sS'actioncliptrain00787.txt'
p46
I67898
sS'actioncliptrain00074.txt'
p47
I107252
sS'actioncliptrain00304.txt'
p48
I102856
sS'actioncliptrain00590.txt'
p49
I82656
sS'actioncliptrain00262.txt'
p50
I6663
sS'actioncliptrain00043.txt'
p51
I23032
sS'actioncliptrain00390.txt'
p52
I360922
sS'actioncliptrain00693.txt'
p53
I78848
sS'actioncliptrain00432.txt'
p54
I118237
sS'actioncliptrain00664.txt'
p55
I193457
sS'actioncliptrain00319.txt'
p56
I173260
sS'actioncliptrain00689.txt'
p57
I70395
sS'actioncliptrain00268.txt'
p58
I29787
sS'actioncliptrain00645.txt'
p59
I61627
sS'actioncliptrain00781.txt'
p60
I198466
sS'actioncliptrain00365.txt'
p61
I62044
sS'actioncliptrain00698.txt'
p62
I41931
sS'actioncliptrain00655.txt'
p63
I28171
sS'actioncliptrain00820.txt'
p64
I21261
sS'actioncliptrain00085.txt'
p65
I332059
sS'actioncliptrain00057.txt'
p66
I81744
sS'actioncliptrain00675.txt'
p67
I36459
sS'actioncliptrain00465.txt'
p68
I152372
sS'actioncliptrain00470.txt'
p69
I71829
sS'actioncliptrain00338.txt'
p70
I41081
sS'actioncliptrain00409.txt'
p71
I124498
sS'actioncliptrain00649.txt'
p72
I79172
sS'actioncliptrain00197.txt'
p73
I191707
sS'actioncliptrain00011.txt'
p74
I58160
sS'actioncliptrain00413.txt'
p75
I59198
sS'actioncliptrain00658.txt'
p76
I65145
sS'actioncliptrain00743.txt'
p77
I9702
sS'actioncliptrain00635.txt'
p78
I185351
sS'actioncliptrain00792.txt'
p79
I95787
sS'actioncliptrain00430.txt'
p80
I226419
sS'actioncliptrain00701.txt'
p81
I14608
sS'actioncliptrain00736.txt'
p82
I711059
sS'actioncliptrain00630.txt'
p83
I39138
sS'actioncliptrain00003.txt'
p84
I85875
sS'actioncliptrain00796.txt'
p85
I4110
sS'actioncliptrain00722.txt'
p86
I322481
sS'actioncliptrain00559.txt'
p87
I31262
sS'actioncliptrain00389.txt'
p88
I333978
sS'actioncliptrain00139.txt'
p89
I67785
sS'actioncliptrain00336.txt'
p90
I76086
sS'actioncliptrain00595.txt'
p91
I86539
sS'actioncliptrain00463.txt'
p92
I32934
sS'actioncliptrain00301.txt'
p93
I583
sS'actioncliptrain00275.txt'
p94
I148341
sS'actioncliptrain00540.txt'
p95
I135869
sS'actioncliptrain00684.txt'
p96
I582581
sS'actioncliptrain00100.txt'
p97
I77380
sS'actioncliptrain00640.txt'
p98
I27692
sS'actioncliptrain00118.txt'
p99
I304922
sS'actioncliptrain00362.txt'
p100
I273593
sS'actioncliptrain00611.txt'
p101
I105676
sS'actioncliptrain00498.txt'
p102
I202610
sS'actioncliptrain00151.txt'
p103
I79517
sS'actioncliptrain00329.txt'
p104
I49391
sS'actioncliptrain00041.txt'
p105
I121677
sS'actioncliptrain00650.txt'
p106
I69803
sS'actioncliptrain00013.txt'
p107
I11353
sS'actioncliptrain00598.txt'
p108
I317369
sS'actioncliptrain00585.txt'
p109
I108362
sS'actioncliptrain00617.txt'
p110
I300490
sS'actioncliptrain00607.txt'
p111
I151234
sS'actioncliptrain00472.txt'
p112
I77938
sS'actioncliptrain00448.txt'
p113
I41179
sS'actioncliptrain00745.txt'
p114
I682884
sS'actioncliptrain00186.txt'
p115
I100389
sS'actioncliptrain00492.txt'
p116
I56197
sS'actioncliptrain00506.txt'
p117
I55494
sS'actioncliptrain00088.txt'
p118
I178540
sS'actioncliptrain00162.txt'
p119
I461643
sS'actioncliptrain00309.txt'
p120
I120704
sS'actioncliptrain00087.txt'
p121
I100940
sS'actioncliptrain00660.txt'
p122
I461841
sS'actioncliptrain00626.txt'
p123
I61676
sS'actioncliptrain00491.txt'
p124
I106725
sS'actioncliptrain00374.txt'
p125
I43750
sS'actioncliptrain00520.txt'
p126
I129082
sS'actioncliptrain00567.txt'
p127
I55707
sS'actioncliptrain00247.txt'
p128
I2307
sS'actioncliptrain00281.txt'
p129
I5817
sS'actioncliptrain00395.txt'
p130
I194541
sS'actioncliptrain00551.txt'
p131
I94168
sS'actioncliptrain00544.txt'
p132
I147499
sS'actioncliptrain00142.txt'
p133
I9709
sS'actioncliptrain00163.txt'
p134
I28505
sS'actioncliptrain00407.txt'
p135
I124905
sS'actioncliptrain00062.txt'
p136
I72329
sS'actioncliptrain00140.txt'
p137
I64903
sS'actioncliptrain00703.txt'
p138
I6366
sS'actioncliptrain00375.txt'
p139
I140247
sS'actioncliptrain00098.txt'
p140
I49157
sS'actioncliptrain00591.txt'
p141
I186584
sS'actioncliptrain00059.txt'
p142
I17952
sS'actioncliptrain00562.txt'
p143
I1310
sS'actioncliptrain00495.txt'
p144
I423928
sS'actioncliptrain00102.txt'
p145
I29645
sS'actioncliptrain00758.txt'
p146
I71464
sS'actioncliptrain00500.txt'
p147
I110655
sS'actioncliptrain00259.txt'
p148
I257903
sS'actioncliptrain00750.txt'
p149
I175829
sS'actioncliptrain00124.txt'
p150
I318841
sS'actioncliptrain00064.txt'
p151
I51992
sS'actioncliptrain00035.txt'
p152
I22799
sS'actioncliptrain00287.txt'
p153
I150900
sS'actioncliptrain00753.txt'
p154
I123204
sS'actioncliptrain00639.txt'
p155
I45328
sS'actioncliptrain00071.txt'
p156
I22459
sS'actioncliptrain00018.txt'
p157
I6598
sS'actioncliptrain00283.txt'
p158
I32744
sS'actioncliptrain00766.txt'
p159
I185381
sS'actioncliptrain00816.txt'
p160
I71314
sS'actioncliptrain00132.txt'
p161
I67895
sS'actioncliptrain00155.txt'
p162
I80263
sS'actioncliptrain00416.txt'
p163
I71536
sS'actioncliptrain00453.txt'
p164
I104476
sS'actioncliptrain00523.txt'
p165
I16033
sS'actioncliptrain00779.txt'
p166
I446454
sS'actioncliptrain00227.txt'
p167
I43912
sS'actioncliptrain00571.txt'
p168
I112961
sS'actioncliptrain00183.txt'
p169
I60482
sS'actioncliptrain00488.txt'
p170
I81593
sS'actioncliptrain00006.txt'
p171
I12636
sS'actioncliptrain00586.txt'
p172
I60517
sS'actioncliptrain00805.txt'
p173
I76735
sS'actioncliptrain00429.txt'
p174
I173660
sS'actioncliptrain00051.txt'
p175
I20722
sS'actioncliptrain00369.txt'
p176
I180362
sS'actioncliptrain00045.txt'
p177
I153671
sS'actioncliptrain00400.txt'
p178
I126426
sS'actioncliptrain00536.txt'
p179
I34840
sS'actioncliptrain00697.txt'
p180
I192046
sS'actioncliptrain00114.txt'
p181
I303670
sS'actioncliptrain00109.txt'
p182
I123348
sS'actioncliptrain00396.txt'
p183
I150690
sS'actioncliptrain00624.txt'
p184
I45536
sS'actioncliptrain00672.txt'
p185
I125899
sS'actioncliptrain00398.txt'
p186
I295218
sS'actioncliptrain00770.txt'
p187
I68552
sS'actioncliptrain00424.txt'
p188
I111438
sS'actioncliptrain00757.txt'
p189
I40956
sS'actioncliptrain00475.txt'
p190
I168544
sS'actioncliptrain00775.txt'
p191
I1236829
sS'actioncliptrain00298.txt'
p192
I246940
sS'actioncliptrain00153.txt'
p193
I84351
sS'actioncliptrain00447.txt'
p194
I26606
sS'actioncliptrain00742.txt'
p195
I381158
sS'actioncliptrain00385.txt'
p196
I9506
sS'actioncliptrain00718.txt'
p197
I52969
sS'actioncliptrain00580.txt'
p198
I57159
sS'actioncliptrain00513.txt'
p199
I26918
sS'actioncliptrain00822.txt'
p200
I14310
sS'actioncliptrain00330.txt'
p201
I93658
sS'actioncliptrain00483.txt'
p202
I60953
sS'actioncliptrain00677.txt'
p203
I162167
sS'actioncliptrain00346.txt'
p204
I98879
sS'actioncliptrain00015.txt'
p205
I10801
sS'actioncliptrain00272.txt'
p206
I103014
sS'actioncliptrain00497.txt'
p207
I542493
sS'actioncliptrain00254.txt'
p208
I170138
sS'actioncliptrain00128.txt'
p209
I131674
sS'actioncliptrain00714.txt'
p210
I64234
sS'actioncliptrain00665.txt'
p211
I299174
sS'actioncliptrain00542.txt'
p212
I77741
sS'actioncliptrain00126.txt'
p213
I47966
sS'actioncliptrain00516.txt'
p214
I50623
sS'actioncliptrain00629.txt'
p215
I247690
sS'actioncliptrain00712.txt'
p216
I24196
sS'actioncliptrain00724.txt'
p217
I1459741
sS'actioncliptrain00178.txt'
p218
I61499
sS'actioncliptrain00803.txt'
p219
I70617
sS'actioncliptrain00218.txt'
p220
I221277
sS'actioncliptrain00388.txt'
p221
I230816
sS'actioncliptrain00277.txt'
p222
I232836
sS'actioncliptrain00535.txt'
p223
I63074
sS'actioncliptrain00278.txt'
p224
I38364
sS'actioncliptrain00031.txt'
p225
I36517
sS'actioncliptrain00460.txt'
p226
I17760
sS'actioncliptrain00205.txt'
p227
I214417
sS'actioncliptrain00364.txt'
p228
I321673
sS'actioncliptrain00294.txt'
p229
I565432
sS'actioncliptrain00746.txt'
p230
I26091
sS'actioncliptrain00160.txt'
p231
I66240
sS'actioncliptrain00359.txt'
p232
I166034
sS'actioncliptrain00212.txt'
p233
I527439
sS'actioncliptrain00342.txt'
p234
I38690
sS'actioncliptrain00519.txt'
p235
I278219
sS'actioncliptrain00534.txt'
p236
I319260
sS'actioncliptrain00288.txt'
p237
I140978
sS'actioncliptrain00737.txt'
p238
I71566
sS'actioncliptrain00797.txt'
p239
I34206
sS'actioncliptrain00101.txt'
p240
I63736
sS'actioncliptrain00426.txt'
p241
I692435
sS'actioncliptrain00061.txt'
p242
I70835
sS'actioncliptrain00807.txt'
p243
I41482
sS'actioncliptrain00688.txt'
p244
I147565
sS'actioncliptrain00486.txt'
p245
I33410
sS'actioncliptrain00328.txt'
p246
I34984
sS'actioncliptrain00256.txt'
p247
I89485
sS'actioncliptrain00541.txt'
p248
I143927
sS'actioncliptrain00499.txt'
p249
I60918
sS'actioncliptrain00270.txt'
p250
I89844
sS'actioncliptrain00510.txt'
p251
I137407
sS'actioncliptrain00170.txt'
p252
I47510
sS'actioncliptrain00666.txt'
p253
I73710
sS'actioncliptrain00076.txt'
p254
I68260
sS'actioncliptrain00459.txt'
p255
I111931
sS'actioncliptrain00763.txt'
p256
I241092
sS'actioncliptrain00512.txt'
p257
I28273
sS'actioncliptrain00606.txt'
p258
I32848
sS'actioncliptrain00547.txt'
p259
I44454
sS'actioncliptrain00119.txt'
p260
I106012
sS'actioncliptrain00228.txt'
p261
I45659
sS'actioncliptrain00300.txt'
p262
I252758
sS'actioncliptrain00236.txt'
p263
I58060
sS'actioncliptrain00206.txt'
p264
I113557
sS'actioncliptrain00169.txt'
p265
I71081
sS'actioncliptrain00685.txt'
p266
I96620
sS'actioncliptrain00525.txt'
p267
I66649
sS'actioncliptrain00089.txt'
p268
I80836
sS'actioncliptrain00028.txt'
p269
I51371
sS'actioncliptrain00060.txt'
p270
I332598
sS'actioncliptrain00240.txt'
p271
I60621
sS'actioncliptrain00704.txt'
p272
I22379
sS'actioncliptrain00394.txt'
p273
I321551
sS'actioncliptrain00632.txt'
p274
I24605
sS'actioncliptrain00462.txt'
p275
I9180
sS'actioncliptrain00001.txt'
p276
I53031
sS'actioncliptrain00410.txt'
p277
I129336
sS'actioncliptrain00493.txt'
p278
I69936
sS'actioncliptrain00433.txt'
p279
I50178
sS'actioncliptrain00529.txt'
p280
I235825
sS'actioncliptrain00439.txt'
p281
I40949
sS'actioncliptrain00622.txt'
p282
I62815
sS'actioncliptrain00436.txt'
p283
I42193
sS'actioncliptrain00554.txt'
p284
I48250
sS'actioncliptrain00222.txt'
p285
I7090
sS'actioncliptrain00401.txt'
p286
I70490
sS'actioncliptrain00317.txt'
p287
I163220
sS'actioncliptrain00221.txt'
p288
I819693
sS'actioncliptrain00096.txt'
p289
I38496
sS'actioncliptrain00457.txt'
p290
I60533
sS'actioncliptrain00760.txt'
p291
I61030
sS'actioncliptrain00678.txt'
p292
I37733
sS'actioncliptrain00683.txt'
p293
I218111
sS'actioncliptrain00564.txt'
p294
I6142
sS'actioncliptrain00004.txt'
p295
I1374
sS'actioncliptrain00730.txt'
p296
I41814
sS'actioncliptrain00800.txt'
p297
I42843
sS'actioncliptrain00110.txt'
p298
I44718
sS'actioncliptrain00351.txt'
p299
I132836
sS'actioncliptrain00652.txt'
p300
I71890
sS'actioncliptrain00702.txt'
p301
I82837
sS'actioncliptrain00592.txt'
p302
I67661
sS'actioncliptrain00034.txt'
p303
I54598
sS'actioncliptrain00344.txt'
p304
I117558
sS'actioncliptrain00579.txt'
p305
I224653
sS'actioncliptrain00242.txt'
p306
I17669
sS'actioncliptrain00706.txt'
p307
I16249
sS'actioncliptrain00297.txt'
p308
I118494
sS'actioncliptrain00199.txt'
p309
I193337
sS'actioncliptrain00817.txt'
p310
I1100796
sS'actioncliptrain00594.txt'
p311
I97523
sS'actioncliptrain00441.txt'
p312
I96723
sS'actioncliptrain00548.txt'
p313
I19972
sS'actioncliptrain00505.txt'
p314
I27812
sS'actioncliptrain00058.txt'
p315
I128812
sS'actioncliptrain00769.txt'
p316
I100616
sS'actioncliptrain00605.txt'
p317
I42796
sS'actioncliptrain00282.txt'
p318
I80257
sS'actioncliptrain00610.txt'
p319
I26687
sS'actioncliptrain00558.txt'
p320
I60697
sS'actioncliptrain00315.txt'
p321
I232499
sS'actioncliptrain00349.txt'
p322
I58203
sS'actioncliptrain00793.txt'
p323
I109670
sS'actioncliptrain00332.txt'
p324
I55040
sS'actioncliptrain00373.txt'
p325
I4195
sS'actioncliptrain00234.txt'
p326
I53055
sS'actioncliptrain00174.txt'
p327
I118840
sS'actioncliptrain00651.txt'
p328
I56741
sS'actioncliptrain00583.txt'
p329
I128998
sS'actioncliptrain00326.txt'
p330
I71041
sS'actioncliptrain00673.txt'
p331
I40776
sS'actioncliptrain00002.txt'
p332
I104166
sS'actioncliptrain00537.txt'
p333
I38655
sS'actioncliptrain00393.txt'
p334
I87535
sS'actioncliptrain00372.txt'
p335
I28317
sS'actioncliptrain00719.txt'
p336
I46280
sS'actioncliptrain00608.txt'
p337
I75233
sS'actioncliptrain00225.txt'
p338
I4384
sS'actioncliptrain00474.txt'
p339
I284895
sS'actioncliptrain00255.txt'
p340
I53951
sS'actioncliptrain00279.txt'
p341
I7151
sS'actioncliptrain00023.txt'
p342
I11004
sS'actioncliptrain00412.txt'
p343
I48170
sS'actioncliptrain00556.txt'
p344
I170993
sS'actioncliptrain00019.txt'
p345
I1543
sS'actioncliptrain00735.txt'
p346
I545500
sS'actioncliptrain00603.txt'
p347
I53951
sS'actioncliptrain00561.txt'
p348
I115601
sS'actioncliptrain00243.txt'
p349
I65549
sS'actioncliptrain00312.txt'
p350
I11557
sS'actioncliptrain00353.txt'
p351
I80882
sS'actioncliptrain00347.txt'
p352
I241486
sS'actioncliptrain00239.txt'
p353
I426805
sS'actioncliptrain00052.txt'
p354
I91415
sS'actioncliptrain00094.txt'
p355
I72828
sS'actioncliptrain00335.txt'
p356
I19162
sS'actioncliptrain00009.txt'
p357
I17470
sS'actioncliptrain00253.txt'
p358
I27347
sS'actioncliptrain00037.txt'
p359
I5874
sS'actioncliptrain00502.txt'
p360
I72419
sS'actioncliptrain00549.txt'
p361
I9716
sS'actioncliptrain00131.txt'
p362
I378736
sS'actioncliptrain00249.txt'
p363
I752898
sS'actioncliptrain00668.txt'
p364
I309628
sS'actioncliptrain00631.txt'
p365
I102361
sS'actioncliptrain00238.txt'
p366
I48834
sS'actioncliptrain00725.txt'
p367
I849258
sS'actioncliptrain00285.txt'
p368
I63326
sS'actioncliptrain00341.txt'
p369
I18487
sS'actioncliptrain00258.txt'
p370
I275592
sS'actioncliptrain00612.txt'
p371
I116414
sS'actioncliptrain00295.txt'
p372
I37794
sS'actioncliptrain00801.txt'
p373
I485560
sS'actioncliptrain00325.txt'
p374
I39312
sS'actioncliptrain00814.txt'
p375
I562805
sS'actioncliptrain00628.txt'
p376
I20888
sS'actioncliptrain00014.txt'
p377
I390319
sS'actioncliptrain00690.txt'
p378
I120680
sS'actioncliptrain00200.txt'
p379
I98023
sS'actioncliptrain00276.txt'
p380
I227605
sS'actioncliptrain00103.txt'
p381
I43825
sS'actioncliptrain00780.txt'
p382
I157503
sS'actioncliptrain00138.txt'
p383
I131375
sS'actioncliptrain00179.txt'
p384
I41400
sS'actioncliptrain00363.txt'
p385
I59736
sS'actioncliptrain00421.txt'
p386
I145830
sS'actioncliptrain00358.txt'
p387
I49924
sS'actioncliptrain00478.txt'
p388
I50074
sS'actioncliptrain00581.txt'
p389
I17035
sS'actioncliptrain00404.txt'
p390
I63188
sS'actioncliptrain00047.txt'
p391
I239175
sS'actioncliptrain00219.txt'
p392
I232543
sS'actioncliptrain00056.txt'
p393
I19467
sS'actioncliptrain00674.txt'
p394
I41719
sS'actioncliptrain00691.txt'
p395
I137000
sS'actioncliptrain00819.txt'
p396
I28972
sS'actioncliptrain00823.txt'
p397
I47407
sS'actioncliptrain00464.txt'
p398
I103795
sS'actioncliptrain00217.txt'
p399
I112079
sS'actioncliptrain00010.txt'
p400
I290306
sS'actioncliptrain00306.txt'
p401
I243213
sS'actioncliptrain00269.txt'
p402
I71671
sS'actioncliptrain00193.txt'
p403
I52444
sS'actioncliptrain00812.txt'
p404
I500545
sS'actioncliptrain00067.txt'
p405
I37325
sS'actioncliptrain00012.txt'
p406
I86959
sS'actioncliptrain00473.txt'
p407
I109183
sS'actioncliptrain00244.txt'
p408
I50486
sS'actioncliptrain00310.txt'
p409
I21567
sS'actioncliptrain00454.txt'
p410
I45801
sS'actioncliptrain00588.txt'
p411
I83771
sS'actioncliptrain00403.txt'
p412
I356011
sS'actioncliptrain00171.txt'
p413
I23558
sS'actioncliptrain00308.txt'
p414
I55800
sS'actioncliptrain00337.txt'
p415
I42459
sS'actioncliptrain00663.txt'
p416
I21062
sS'actioncliptrain00361.txt'
p417
I1335290
sS'actioncliptrain00423.txt'
p418
I526870
sS'actioncliptrain00667.txt'
p419
I49084
sS'actioncliptrain00260.txt'
p420
I72645
sS'actioncliptrain00676.txt'
p421
I50354
sS'actioncliptrain00633.txt'
p422
I71652
sS'actioncliptrain00099.txt'
p423
I48014
sS'actioncliptrain00487.txt'
p424
I21906
sS'actioncliptrain00411.txt'
p425
I168779
sS'actioncliptrain00783.txt'
p426
I133500
sS'actioncliptrain00726.txt'
p427
I152942
sS'actioncliptrain00715.txt'
p428
I125181
sS'actioncliptrain00738.txt'
p429
I337355
sS'actioncliptrain00305.txt'
p430
I733873
sS'actioncliptrain00509.txt'
p431
I58574
sS'actioncliptrain00182.txt'
p432
I72521
sS'actioncliptrain00402.txt'
p433
I78248
sS'actioncliptrain00158.txt'
p434
I24883
sS'actioncliptrain00208.txt'
p435
I180173
sS'actioncliptrain00371.txt'
p436
I69776
sS'actioncliptrain00790.txt'
p437
I95055
sS'actioncliptrain00145.txt'
p438
I31199
sS'actioncliptrain00091.txt'
p439
I72338
sS'actioncliptrain00456.txt'
p440
I65018
sS'actioncliptrain00644.txt'
p441
I36424
sS'actioncliptrain00615.txt'
p442
I52772
sS'actioncliptrain00438.txt'
p443
I71050
sS'actioncliptrain00025.txt'
p444
I15038
sS'actioncliptrain00350.txt'
p445
I47685
sS'actioncliptrain00661.txt'
p446
I71277
sS'actioncliptrain00627.txt'
p447
I58698
sS'actioncliptrain00083.txt'
p448
I32842
sS'actioncliptrain00097.txt'
p449
I88775
sS'actioncliptrain00215.txt'
p450
I273270
sS'actioncliptrain00476.txt'
p451
I98086
sS'actioncliptrain00720.txt'
p452
I11913
sS'actioncliptrain00550.txt'
p453
I51090
sS'actioncliptrain00788.txt'
p454
I147247
sS'actioncliptrain00526.txt'
p455
I221206
sS'actioncliptrain00191.txt'
p456
I22103
sS'actioncliptrain00522.txt'
p457
I48474
sS'actioncliptrain00048.txt'
p458
I81074
sS'actioncliptrain00166.txt'
p459
I60023
sS'actioncliptrain00356.txt'
p460
I19667
sS'actioncliptrain00383.txt'
p461
I66670
sS'actioncliptrain00172.txt'
p462
I56676
sS'actioncliptrain00267.txt'
p463
I28578
sS'actioncliptrain00050.txt'
p464
I68752
sS'actioncliptrain00224.txt'
p465
I18152
sS'actioncliptrain00280.txt'
p466
I6107
sS'actioncliptrain00039.txt'
p467
I12890
sS'actioncliptrain00066.txt'
p468
I55657
sS'actioncliptrain00774.txt'
p469
I75035
sS'actioncliptrain00440.txt'
p470
I96620
sS'actioncliptrain00093.txt'
p471
I150065
sS'actioncliptrain00686.txt'
p472
I86367
sS'actioncliptrain00468.txt'
p473
I190000
sS'actioncliptrain00717.txt'
p474
I19416
sS'actioncliptrain00378.txt'
p475
I29425
sS'actioncliptrain00707.txt'
p476
I18841
sS'actioncliptrain00415.txt'
p477
I455557
sS'actioncliptrain00081.txt'
p478
I52925
sS'actioncliptrain00111.txt'
p479
I217953
sS'actioncliptrain00148.txt'
p480
I22069
sS'actioncliptrain00323.txt'
p481
I109507
sS'actioncliptrain00333.txt'
p482
I35304
sS'actioncliptrain00600.txt'
p483
I77912
sS'actioncliptrain00739.txt'
p484
I68651
sS'actioncliptrain00257.txt'
p485
I99984
sS'actioncliptrain00133.txt'
p486
I309091
sS'actioncliptrain00504.txt'
p487
I137552
sS'actioncliptrain00434.txt'
p488
I45021
sS'actioncliptrain00692.txt'
p489
I124713
sS'actioncliptrain00539.txt'
p490
I50619
sS'actioncliptrain00120.txt'
p491
I56988
sS'actioncliptrain00314.txt'
p492
I188187
sS'actioncliptrain00489.txt'
p493
I360591
sS'actioncliptrain00007.txt'
p494
I31654
sS'actioncliptrain00149.txt'
p495
I128868
sS'actioncliptrain00741.txt'
p496
I38267
sS'actioncliptrain00587.txt'
p497
I42397
sS'actioncliptrain00008.txt'
p498
I69655
sS'actioncliptrain00368.txt'
p499
I88191
sS'actioncliptrain00729.txt'
p500
I85281
sS'actioncliptrain00263.txt'
p501
I47164
sS'actioncliptrain00405.txt'
p502
I337157
sS'actioncliptrain00291.txt'
p503
I1151459
sS'actioncliptrain00646.txt'
p504
I40254
sS'actioncliptrain00086.txt'
p505
I149434
sS'actioncliptrain00164.txt'
p506
I42383
sS'actioncliptrain00053.txt'
p507
I267207
sS'actioncliptrain00117.txt'
p508
I224159
sS'actioncliptrain00122.txt'
p509
I35232
sS'actioncliptrain00573.txt'
p510
I42695
sS'actioncliptrain00367.txt'
p511
I129211
sS'actioncliptrain00747.txt'
p512
I44253
sS'actioncliptrain00490.txt'
p513
I78074
sS'actioncliptrain00681.txt'
p514
I25380
sS'actioncliptrain00709.txt'
p515
I100782
sS'actioncliptrain00032.txt'
p516
I25285
sS'actioncliptrain00700.txt'
p517
I70579
sS'actioncliptrain00055.txt'
p518
I339584
sS'actioncliptrain00036.txt'
p519
I13149
sS'actioncliptrain00005.txt'
p520
I3005
sS'actioncliptrain00479.txt'
p521
I97729
sS'actioncliptrain00806.txt'
p522
I66996
sS'actioncliptrain00560.txt'
p523
I98686
sS'actioncliptrain00496.txt'
p524
I75192
sS'actioncliptrain00130.txt'
p525
I83154
sS'actioncliptrain00020.txt'
p526
I2098
sS'actioncliptrain00443.txt'
p527
I234657
sS'actioncliptrain00593.txt'
p528
I70573
sS'actioncliptrain00316.txt'
p529
I171457
sS'actioncliptrain00785.txt'
p530
I203406
sS'actioncliptrain00387.txt'
p531
I159905
sS'actioncliptrain00811.txt'
p532
I56669
sS'actioncliptrain00768.txt'
p533
I11387
sS'actioncliptrain00679.txt'
p534
I18241
sS'actioncliptrain00077.txt'
p535
I98234
sS'actioncliptrain00137.txt'
p536
I162043
sS'actioncliptrain00602.txt'
p537
I82968
sS'actioncliptrain00194.txt'
p538
I543132
sS'actioncliptrain00653.txt'
p539
I4127
sS'actioncliptrain00767.txt'
p540
I110805
sS'actioncliptrain00710.txt'
p541
I62149
sS'actioncliptrain00671.txt'
p542
I21500
sS'actioncliptrain00656.txt'
p543
I27888
sS'actioncliptrain00042.txt'
p544
I102800
sS'actioncliptrain00146.txt'
p545
I2677
sS'actioncliptrain00030.txt'
p546
I39361
sS'actioncliptrain00461.txt'
p547
I47159
sS'actioncliptrain00577.txt'
p548
I41329
sS'actioncliptrain00192.txt'
p549
I338634
sS'actioncliptrain00481.txt'
p550
I71679
sS'actioncliptrain00755.txt'
p551
I11515
sS'actioncliptrain00318.txt'
p552
I150804
sS'actioncliptrain00248.txt'
p553
I60029
sS'actioncliptrain00637.txt'
p554
I153357
sS'actioncliptrain00445.txt'
p555
I65096
sS'actioncliptrain00213.txt'
p556
I688419
sS'actioncliptrain00659.txt'
p557
I148542
sS'actioncliptrain00203.txt'
p558
I90183
sS'actioncliptrain00184.txt'
p559
I57269
sS'actioncliptrain00749.txt'
p560
I142641
sS'actioncliptrain00229.txt'
p561
I27023
sS'actioncliptrain00084.txt'
p562
I47832
sS'actioncliptrain00531.txt'
p563
I24969
sS'actioncliptrain00648.txt'
p564
I418195
sS'actioncliptrain00732.txt'
p565
I486752
sS'actioncliptrain00524.txt'
p566
I41220
sS'actioncliptrain00303.txt'
p567
I103571
sS'actioncliptrain00075.txt'
p568
I188144
sS'actioncliptrain00437.txt'
p569
I87547
sS'actioncliptrain00734.txt'
p570
I150085
sS'actioncliptrain00196.txt'
p571
I80770
sS'actioncliptrain00621.txt'
p572
I45848
sS'actioncliptrain00017.txt'
p573
I19504
sS'actioncliptrain00458.txt'
p574
I45510
sS'actioncliptrain00422.txt'
p575
I168146
sS'actioncliptrain00428.txt'
p576
I7790
sS'actioncliptrain00575.txt'
p577
I21400
sS'actioncliptrain00482.txt'
p578
I88179
sS'actioncliptrain00245.txt'
p579
I292381
sS'actioncliptrain00552.txt'
p580
I285222
sS'actioncliptrain00104.txt'
p581
I27840
sS'actioncliptrain00494.txt'
p582
I79405
sS'actioncliptrain00723.txt'
p583
I314283
sS'actioncliptrain00599.txt'
p584
I131162
sS'actioncliptrain00352.txt'
p585
I48161
sS'actioncliptrain00546.txt'
p586
I46510
sS'actioncliptrain00220.txt'
p587
I635480
sS'actioncliptrain00261.txt'
p588
I107091
sS'actioncliptrain00065.txt'
p589
I12337
sS'actioncliptrain00813.txt'
p590
I227781
sS'actioncliptrain00274.txt'
p591
I14309
sS'actioncliptrain00207.txt'
p592
I133220
sS'actioncliptrain00168.txt'
p593
I57007
sS'actioncliptrain00105.txt'
p594
I132646
sS'actioncliptrain00754.txt'
p595
I7497
sS'actioncliptrain00614.txt'
p596
I6206
sS'actioncliptrain00167.txt'
p597
I37782
sS'actioncliptrain00231.txt'
p598
I19125
sS'actioncliptrain00765.txt'
p599
I24106
sS'actioncliptrain00802.txt'
p600
I210437
sS'actioncliptrain00095.txt'
p601
I40990
sS'actioncliptrain00821.txt'
p602
I28144
sS'actioncliptrain00040.txt'
p603
I39674
sS'actioncliptrain00662.txt'
p604
I59678
sS'actioncliptrain00791.txt'
p605
I28106
sS'actioncliptrain00759.txt'
p606
I34308
sS'actioncliptrain00589.txt'
p607
I120890
sS'actioncliptrain00572.txt'
p608
I66041
sS'actioncliptrain00533.txt'
p609
I233078
sS'actioncliptrain00527.txt'
p610
I104056
sS'actioncliptrain00569.txt'
p611
I74066
sS'actioncliptrain00555.txt'
p612
I117505
sS'actioncliptrain00161.txt'
p613
I84147
sS'actioncliptrain00292.txt'
p614
I186455
sS'actioncliptrain00156.txt'
p615
I41039
sS'actioncliptrain00159.txt'
p616
I65758
sS'actioncliptrain00382.txt'
p617
I107683
sS'actioncliptrain00744.txt'
p618
I26353
sS'actioncliptrain00705.txt'
p619
I36640
sS'actioncliptrain00177.txt'
p620
I37838
sS'actioncliptrain00408.txt'
p621
I60860
sS'actioncliptrain00425.txt'
p622
I109689
sS'actioncliptrain00521.txt'
p623
I229097
sS'actioncliptrain00173.txt'
p624
I72005
sS'actioncliptrain00451.txt'
p625
I68637
sS'actioncliptrain00435.txt'
p626
I28509
sS'actioncliptrain00223.txt'
p627
I10869
sS'actioncliptrain00181.txt'
p628
I59711
sS'actioncliptrain00514.txt'
p629
I39720
sS'actioncliptrain00545.txt'
p630
I30536
sS'actioncliptrain00143.txt'
p631
I56183
sS'actioncliptrain00798.txt'
p632
I74487
sS'actioncliptrain00136.txt'
p633
I92499
sS'actioncliptrain00070.txt'
p634
I2923
sS'actioncliptrain00469.txt'
p635
I45279
sS'actioncliptrain00794.txt'
p636
I74699
sS'actioncliptrain00687.txt'
p637
I96293
sS'actioncliptrain00503.txt'
p638
I52176
sS'actioncliptrain00641.txt'
p639
I78500
sS'actioncliptrain00538.txt'
p640
I59489
sS'actioncliptrain00618.txt'
p641
I32236
sS'actioncliptrain00721.txt'
p642
I163187
sS'actioncliptrain00027.txt'
p643
I312903
sS'actioncliptrain00080.txt'
p644
I44334
sS'actioncliptrain00455.txt'
p645
I107122
sS'actioncliptrain00777.txt'
p646
I57014
sS'actioncliptrain00290.txt'
p647
I85428
sS'actioncliptrain00740.txt'
p648
I78018
sS'actioncliptrain00596.txt'
p649
I64956
sS'actioncliptrain00068.txt'
p650
I178017
sS'actioncliptrain00604.txt'
p651
I45278
sS'actioncliptrain00450.txt'
p652
I25303
sS'actioncliptrain00125.txt'
p653
I346815
sS'actioncliptrain00175.txt'
p654
I83008
sS'actioncliptrain00198.txt'
p655
I107264
sS'actioncliptrain00582.txt'
p656
I31720
sS'actioncliptrain00339.txt'
p657
I96348
sS'actioncliptrain00566.txt'
p658
I10593
sS'actioncliptrain00116.txt'
p659
I43273
sS'actioncliptrain00772.txt'
p660
I13770
sS'actioncliptrain00265.txt'
p661
I14021
sS'actioncliptrain00804.txt'
p662
I454958
sS'actioncliptrain00776.txt'
p663
I89900
sS'actioncliptrain00669.txt'
p664
I13546
sS'actioncliptrain00528.txt'
p665
I460849
sS'actioncliptrain00699.txt'
p666
I62070
sS'actioncliptrain00320.txt'
p667
I459568
sS'actioncliptrain00613.txt'
p668
I103524
sS'actioncliptrain00073.txt'
p669
I137849
sS'actioncliptrain00570.txt'
p670
I60251
sS'actioncliptrain00022.txt'
p671
I11272
sS'actioncliptrain00209.txt'
p672
I154257
sS'actioncliptrain00728.txt'
p673
I37668
sS'actioncliptrain00381.txt'
p674
I77637
sS'actioncliptrain00471.txt'
p675
I103232
sS'actioncliptrain00568.txt'
p676
I67497
sS'actioncliptrain00795.txt'
p677
I422535
sS'actioncliptrain00557.txt'
p678
I79659
sS'actioncliptrain00501.txt'
p679
I216010
sS'actioncliptrain00643.txt'
p680
I23112
sS'actioncliptrain00477.txt'
p681
I173435
sS'actioncliptrain00467.txt'
p682
I744607
sS'actioncliptrain00112.txt'
p683
I142581
sS'actioncliptrain00752.txt'
p684
I14728
sS'actioncliptrain00082.txt'
p685
I251563
sS'actioncliptrain00232.txt'
p686
I32788
sS'actioncliptrain00565.txt'
p687
I10506
sS'actioncliptrain00366.txt'
p688
I823439
sS'actioncliptrain00211.txt'
p689
I107680
sS'actioncliptrain00250.txt'
p690
I46706
sS'actioncliptrain00377.txt'
p691
I123608
sS'actioncliptrain00152.txt'
p692
I50201
sS'actioncliptrain00761.txt'
p693
I43135
sS'actioncliptrain00446.txt'
p694
I47037
sS'actioncliptrain00322.txt'
p695
I46751
sS'actioncliptrain00189.txt'
p696
I86427
sS'actioncliptrain00107.txt'
p697
I328288
sS'actioncliptrain00340.txt'
p698
I3844
sS'actioncliptrain00307.txt'
p699
I78802
sS'actioncliptrain00417.txt'
p700
I309561
sS'actioncliptrain00634.txt'
p701
I52235
sS'actioncliptrain00024.txt'
p702
I14513
sS'actioncliptrain00106.txt'
p703
I118849
sS'actioncliptrain00079.txt'
p704
I912103
sS'actioncliptrain00331.txt'
p705
I79267
sS'actioncliptrain00324.txt'
p706
I170163
sS'actioncliptrain00647.txt'
p707
I98163
sS'actioncliptrain00251.txt'
p708
I79434
sS'actioncliptrain00636.txt'
p709
I18612
sS'actioncliptrain00815.txt'
p710
I133395
sS'actioncliptrain00711.txt'
p711
I26946
sS'actioncliptrain00530.txt'
p712
I85693
sS'actioncliptrain00751.txt'
p713
I142275
sS'actioncliptrain00190.txt'
p714
I18027
sS'actioncliptrain00127.txt'
p715
I38809
sS'actioncliptrain00123.txt'
p716
I14880
sS'actioncliptrain00033.txt'
p717
I161363
sS'actioncliptrain00616.txt'
p718
I7190
sS'actioncliptrain00302.txt'
p719
I40031
sS'actioncliptrain00235.txt'
p720
I64940
sS'actioncliptrain00201.txt'
p721
I380739
sS'actioncliptrain00202.txt'
p722
I210936
sS'actioncliptrain00360.txt'
p723
I23349
sS'actioncliptrain00046.txt'
p724
I263667
sS'actioncliptrain00786.txt'
p725
I231637
sS'actioncliptrain00216.txt'
p726
I123126
sS'actioncliptrain00694.txt'
p727
I18018
sS'actioncliptrain00708.txt'
p728
I16655
sS'actioncliptrain00115.txt'
p729
I339070
sS'actioncliptrain00187.txt'
p730
I80402
sS'actioncliptrain00484.txt'
p731
I146821
sS'actioncliptrain00420.txt'
p732
I295359
sS'actioncliptrain00620.txt'
p733
I110387
sS'actioncliptrain00204.txt'
p734
I213192
sS'actioncliptrain00273.txt'
p735
I100900
sS'actioncliptrain00311.txt'
p736
I34640
sS'actioncliptrain00809.txt'
p737
I57949
sS'actioncliptrain00343.txt'
p738
I70621
sS'actioncliptrain00518.txt'
p739
I60609
sS'actioncliptrain00289.txt'
p740
I73129
sS'actioncliptrain00029.txt'
p741
I344474
sS'actioncliptrain00748.txt'
p742
I94905
sS'actioncliptrain00778.txt'
p743
I24139
sS'actioncliptrain00543.txt'
p744
I115089
sS'actioncliptrain00391.txt'
p745
I397898
sS'actioncliptrain00553.txt'
p746
I71437
sS'actioncliptrain00165.txt'
p747
I59989
sS'actioncliptrain00016.txt'
p748
I26361
sS'actioncliptrain00266.txt'
p749
I67961
sS'actioncliptrain00762.txt'
p750
I77430
sS'actioncliptrain00654.txt'
p751
I115087
sS'actioncliptrain00444.txt'
p752
I57071
sS'actioncliptrain00144.txt'
p753
I45640
sS'actioncliptrain00574.txt'
p754
I79279
sS'actioncliptrain00782.txt'
p755
I148507
sS'actioncliptrain00284.txt'
p756
I138923
sS'actioncliptrain00727.txt'
p757
I124867
sS'actioncliptrain00185.txt'
p758
I6772
sS'actioncliptrain00271.txt'
p759
I121739
sS'actioncliptrain00397.txt'
p760
I350330
sS'actioncliptrain00508.txt'
p761
I86269
sS'actioncliptrain00431.txt'
p762
I47004
sS'actioncliptrain00090.txt'
p763
I186258
sS'actioncliptrain00696.txt'
p764
I28150
sS'actioncliptrain00038.txt'
p765
I18361
sS'actioncliptrain00348.txt'
p766
I112144
sS'actioncliptrain00141.txt'
p767
I16207
sS'actioncliptrain00716.txt'
p768
I173893
sS'actioncliptrain00507.txt'
p769
I18654
sS'actioncliptrain00237.txt'
p770
I8543
sS'actioncliptrain00771.txt'
p771
I7414
sS'actioncliptrain00764.txt'
p772
I66135
sS'actioncliptrain00157.txt'
p773
I19533
sS'actioncliptrain00414.txt'
p774
I292028
sS'actioncliptrain00214.txt'
p775
I491201
sS'actioncliptrain00264.txt'
p776
I265529
sS'actioncliptrain00449.txt'
p777
I18277
sS'actioncliptrain00609.txt'
p778
I67353
sS'actioncliptrain00584.txt'
p779
I61212
sS'actioncliptrain00517.txt'
p780
I84632
sS'actioncliptrain00246.txt'
p781
I11461
sS'actioncliptrain00619.txt'
p782
I80265
sS'actioncliptrain00049.txt'
p783
I27174
sS'actioncliptrain00180.txt'
p784
I24261
sS'actioncliptrain00623.txt'
p785
I22668
sS'actioncliptrain00733.txt'
p786
I1048946
sS'actioncliptrain00576.txt'
p787
I100642
sS'actioncliptrain00355.txt'
p788
I10925
sS'actioncliptrain00313.txt'
p789
I187845
sS'actioncliptrain00092.txt'
p790
I215777
sS'actioncliptrain00680.txt'
p791
I177127
sS'actioncliptrain00026.txt'
p792
I211296
sS'actioncliptrain00129.txt'
p793
I92606
sS'actioncliptrain00147.txt'
p794
I11860
sS'actioncliptrain00252.txt'
p795
I198501
sS'actioncliptrain00427.txt'
p796
I172957
sS'actioncliptrain00354.txt'
p797
I91113
sS'actioncliptrain00773.txt'
p798
I1840
sS'actioncliptrain00069.txt'
p799
I124827
sS'actioncliptrain00406.txt'
p800
I81388
sS'actioncliptrain00597.txt'
p801
I58025
sS'actioncliptrain00670.txt'
p802
I29767
sS'actioncliptrain00376.txt'
p803
I146894
sS'actioncliptrain00601.txt'
p804
I27382
sS'actioncliptrain00286.txt'
p805
I67369
sS'actioncliptrain00078.txt'
p806
I79158
sS'actioncliptrain00578.txt'
p807
I59556
sS'actioncliptrain00176.txt'
p808
I42178
sS'actioncliptrain00713.txt'
p809
I116030
sS'actioncliptrain00625.txt'
p810
I20208
sS'actioncliptrain00226.txt'
p811
I15199
sS'actioncliptrain00399.txt'
p812
I249786
sS'actioncliptrain00321.txt'
p813
I248617
sS'actioncliptrain00121.txt'
p814
I132825
sS'actioncliptrain00135.txt'
p815
I138322
sS'actioncliptrain00799.txt'
p816
I64507
sS'actioncliptrain00063.txt'
p817
I43852
sS'actioncliptrain00370.txt'
p818
I229480
sS'actioncliptrain00154.txt'
p819
I52692
sS'actioncliptrain00241.txt'
p820
I216068
sS'actioncliptrain00808.txt'
p821
I36769
sS'actioncliptrain00784.txt'
p822
I245655
sS'actioncliptrain00563.txt'
p823
I20583
sS'actioncliptrain00384.txt'
p824
I9234
s.